(lp1
S'aalborg, denmark'
p2
aS'aal'
p3
aS'aalesund, norway'
p4
aS'aes'
p5
aS'aarhus, denmark - bus service'
p6
aS'zid'
p7
aS'aarhus, denmark - tirstrup'
p8
aS'aar'
p9
aS'aasiaat, greenland'
p10
aS'jeg'
p11
aS'abadan, iran'
p12
aS'abd'
p13
aS'abakan, russia'
p14
aS'aba'
p15
aS'abbotsford, bc'
p16
aS'yxx'
p17
aS'aberdeen, sd'
p18
aS'abr'
p19
aS'aberdeen, united kingdom'
p20
aS'abz'
p21
aS'abha, saudi arabia'
p22
aS'ahb'
p23
aS"abidjan, cote d'ivoire"
p24
aS'abj'
p25
aS'abilene, tx'
p26
aS'abi'
p27
aS'abu dhabi, united arab emirates'
p28
aS'auh'
p29
aS'abu simbel, egypt'
p30
aS'abs'
p31
aS'abuja, nigeria'
p32
aS'abv'
p33
aS'acapulco, mexico'
p34
aS'aca'
p35
aS'acarigua, venezuela'
p36
aS'agv'
p37
aS'accra, ghana'
p38
aS'acc'
p39
aS'adak island, ak'
p40
aS'adk'
p41
aS'adana, turkey'
p42
aS'ada'
p43
aS'addis ababa, ethopia'
p44
aS'add'
p45
aS'adelaide, australia'
p46
aS'adl'
p47
aS'aden, yemen'
p48
aS'ade'
p49
aS'adler/sochi, russia'
p50
aS'aer'
p51
aS'adrar, algeria'
p52
aS'azr'
p53
aS'afutara, soloman islands'
p54
aS'aft'
p55
aS'agadir, morocco'
p56
aS'aga'
p57
aS'agartala, india'
p58
aS'ixa'
p59
aS'agaun, papua new guinea'
p60
aS'aup'
p61
aS'agen, france'
p62
aS'agf'
p63
aS'agra, india'
p64
aS'agr'
p65
aS'agri, turkey'
p66
aS'aji'
p67
aS'aguadilla, puerto rico'
p68
aS'bqn'
p69
aS'aguascalientes, mexico'
p70
aS'agu'
p71
aS'aguni, japan'
p72
aS'agj'
p73
aS'ahmedabad, india'
p74
aS'amd'
p75
aS'ahwaz, iran'
p76
aS'awz'
p77
aS'ailuk island, marshall islands'
p78
aS'aim'
p79
aS'aioun el atrouss, mauritania'
p80
aS'aeo'
p81
aS'airok, marshall islands'
p82
aS'aic'
p83
aS'aitutaki, cook islands'
p84
aS'ait'
p85
aS'aizawl, india'
p86
aS'ajl'
p87
aS'ajaccio, france'
p88
aS'aja'
p89
aS'akiachak, ak'
p90
aS'kki'
p91
aS'akiak, ak'
p92
aS'aki'
p93
aS'akita, japan'
p94
aS'axt'
p95
aS'akron/canton, oh'
p96
aS'cak'
p97
aS'aksu, china'
p98
aS'aku'
p99
aS'aktyubinsk, kazakhstan'
p100
aS'akx'
p101
aS'akulivik, qc'
p102
aS'akv'
p103
aS'akureyri, iceland'
p104
aS'aey'
p105
aS'akuton, ak'
p106
aS'kqa'
p107
aS'al ain, united arab emirates'
p108
aS'aan'
p109
aS'al arish, egypt'
p110
aS'aac'
p111
aS'al ghaydah, yemen'
p112
aS'aay'
p113
aS'al hoceima, morocco'
p114
aS'ahu'
p115
aS'alakanuk, ak'
p116
aS'auk'
p117
aS'alamogordo, nm'
p118
aS'alm'
p119
aS'alamosa, co'
p120
aS'als'
p121
aS'al-baha, saudi arabia'
p122
aS'abt'
p123
aS'albany, ny'
p124
aS'alb'
p125
aS'albany, or - bus service'
p126
aS'cvo'
p127
aS'albany, or - bus service'
p128
aS'qwy'
p129
aS'albuquerque, nm'
p130
aS'abq'
p131
aS'albury, australia'
p132
aS'abx'
p133
aS'alderney, united kingdom'
p134
aS'aci'
p135
aS'aldershot, on - rail service'
p136
aS'xly'
p137
aS'aleknagik, ak'
p138
aS'wkk'
p139
aS'aleppo, syrian arab republic'
p140
aS'alp'
p141
aS'alexander bay, south africa'
p142
aS'alj'
p143
aS'alexandria, egypt'
p144
aS'aly'
p145
aS'alexandria, la'
p146
aS'aex'
p147
aS'alexandria,on - rail service'
p148
aS'xfs'
p149
aS'alexandroupolis, greece'
p150
aS'axd'
p151
aS'al-fujairah, united arab emirates'
p152
aS'fjr'
p153
aS'alghero, italy'
p154
aS'aho'
p155
aS'algiers, algeria'
p156
aS'alg'
p157
aS'alicante, spain'
p158
aS'alc'
p159
aS'alice springs, australia'
p160
aS'asp'
p161
aS'allakaket, ak'
p162
aS'aet'
p163
aS'allentown, pa'
p164
aS'abe'
p165
aS'alliance, ne'
p166
aS'aia'
p167
aS'alma, qc'
p168
aS'ytf'
p169
aS'almaty, kazakhstan'
p170
aS'akx'
p171
aS'almeria, spain'
p172
aS'lei'
p173
aS'alor island, indonesia'
p174
aS'ard'
p175
aS'alorsetar, malaysia'
p176
aS'aor'
p177
aS'alotau, papua new guinea'
p178
aS'gur'
p179
aS'alpena, mi'
p180
aS'apn'
p181
aS'alta, norway'
p182
aS'alf'
p183
aS'altamira, brazil'
p184
aS'atm'
p185
aS'altay, china'
p186
aS'aat'
p187
aS'altenrhein, switzerland'
p188
aS'ach'
p189
aS'alto rio senguerr, argentina'
p190
aS'arr'
p191
aS'altoona, pa'
p192
aS'aoo'
p193
aS'amami o shima, japan'
p194
aS'asj'
p195
aS'amarillo, tx'
p196
aS'ama'
p197
aS'amazon bay, papua new guinea'
p198
aS'azb'
p199
aS'ambanja, madagascar'
p200
aS'iva'
p201
aS'ambatomainty, madagascar'
p202
aS'amy'
p203
aS'ambatondrazaka, madagascar'
p204
aS'wam'
p205
aS'ambler, ak'
p206
aS'abl'
p207
aS'ambon, indonesia'
p208
aS'amq'
p209
aS'amboseli, kenya'
p210
aS'asv'
p211
aS'amderma, russia'
p212
aS'amv'
p213
aS'amman, jordan - civil/marka airport'
p214
aS'adj'
p215
aS'amman, jordan - queen alia international'
p216
aS'amm'
p217
aS'amritsar, india'
p218
aS'atq'
p219
aS'amsterdam, netherlands'
p220
aS'ams'
p221
aS'anadyr, russia'
p222
aS'dyr'
p223
aS'anahim lake, bc'
p224
aS'yaa'
p225
aS'anaktueuk, ak'
p226
aS'akp'
p227
aS'analalava, madagascar'
p228
aS'hva'
p229
aS'anapa, russia'
p230
aS'aaq'
p231
aS'anchorage, ak'
p232
aS'anc'
p233
aS'ancona, italy'
p234
aS'aoi'
p235
aS'andenes, norway'
p236
aS'anx'
p237
aS'andizhan, uzbekistan'
p238
aS'azn'
p239
aS'aneityum, vanuatu'
p240
aS'auy'
p241
aS'angelholm/helsingborg, sweden'
p242
aS'jhe'
p243
aS'angers, france - marce'
p244
aS'ane'
p245
aS'angers, france - rail service'
p246
aS'qxg'
p247
aS'anggi, indonesia'
p248
aS'agd'
p249
aS'anging, china'
p250
aS'aqg'
p251
aS'angling lake, on'
p252
aS'yax'
p253
aS'angoon, ak'
p254
aS'agn'
p255
aS'angouleme, france'
p256
aS'ang'
p257
aS'anguilla, anguilla'
p258
aS'axa'
p259
aS'aniak, ak'
p260
aS'ani'
p261
aS'aniwa, vanuatu'
p262
aS'awd'
p263
aS'ankang, china'
p264
aS'aka'
p265
aS'ankara, turkey - esenboga'
p266
aS'esb'
p267
aS'ankara, turkey - etimesqut'
p268
aS'ank'
p269
aS'ankavandra, madagascar'
p270
aS'jva'
p271
aS'annaba, algeria'
p272
aS'aae'
p273
aS'annecy, france'
p274
aS'ncy'
p275
aS'antalaha, madagascar'
p276
aS'anm'
p277
aS'antalya, turkey'
p278
aS'ayt'
p279
aS'antaninvarivo, madgascar'
p280
aS'tnr'
p281
aS'antigua, antigua and barbuda'
p282
aS'anu'
p283
aS'antofagasta, chile'
p284
aS'anf'
p285
aS'antsalova, madagascar'
p286
aS'waq'
p287
aS'antsiranana, madagascar'
p288
aS'die'
p289
aS'antsohihy, madagascar'
p290
aS'wai'
p291
aS'antwerp, belgium - bus service'
p292
aS'zay'
p293
aS'antwerp, belgium - deurne airport'
p294
aS'anr'
p295
aS'anvik, ak'
p296
aS'anv'
p297
aS'aomori, japan'
p298
aS'aoj'
p299
aS'aosta, italy'
p300
aS'aot'
p301
aS'apartado, colombia'
p302
aS'apo'
p303
aS'apia, western samoa'
p304
aS'apw'
p305
aS'apia, western samoa'
p306
aS'fgi'
p307
aS'appleton, wi'
p308
aS'atw'
p309
aS'aqaba, jordan'
p310
aS'aqj'
p311
aS'araca, brazil'
p312
aS'aju'
p313
aS'aracatuba, brazil'
p314
aS'aru'
p315
aS'arad, romania'
p316
aS'arw'
p317
aS'aragip, papua new guinea'
p318
aS'arp'
p319
aS'araguaina, brazil'
p320
aS'aux'
p321
aS'arapoti, brazil'
p322
aS'aag'
p323
aS'arar, saudi arabia'
p324
aS'rae'
p325
aS'arauca, colombia'
p326
aS'auc'
p327
aS'arba mintch, ethiopia'
p328
aS'amh'
p329
aS'arcata, ca'
p330
aS'acv'
p331
aS'arctic bay, nu'
p332
aS'yab'
p333
aS'arctic village, ak'
p334
aS'arc'
p335
aS'ardabil, iran'
p336
aS'adu'
p337
aS'arequipa, peru'
p338
aS'aqp'
p339
aS'argelholm/helsingborg, sweden'
p340
aS'agh'
p341
aS'argyle, australia'
p342
aS'gyl'
p343
aS'arica, chile'
p344
aS'ari'
p345
aS'arkangelsk, russia'
p346
aS'arh'
p347
aS'armenia, colombia'
p348
aS'axm'
p349
aS'armidale, australia'
p350
aS'arm'
p351
aS"arthur's town, bahamas"
p352
aS'atc'
p353
aS'arua, uganda'
p354
aS'rua'
p355
aS'aruba, aruba'
p356
aS'aua'
p357
aS'arusha, tanzania'
p358
aS'ark'
p359
aS'arviat, nu'
p360
aS'yek'
p361
aS'arvidsjaur, sweden'
p362
aS'ajr'
p363
aS'asahikawa, japan'
p364
aS'akj'
p365
aS'asheville, nc'
p366
aS'avl'
p367
aS'ashgabat, turkmenistan'
p368
aS'asb'
p369
aS'ashland, ky/huntington, wv'
p370
aS'hts'
p371
aS'asmara, eritrea'
p372
aS'asm'
p373
aS'asosa, ethopia'
p374
aS'aso'
p375
aS'aspen, co'
p376
aS'ase'
p377
aS'assiut, egypt'
p378
aS'atz'
p379
aS'astana, kazakhstan'
p380
aS'tse'
p381
aS'astrakhan, russia'
p382
aS'asf'
p383
aS'asturias, spain and canary islands'
p384
aS'ovd'
p385
aS'asuncion, paraguay'
p386
aS'asu'
p387
aS'aswan, egypt'
p388
aS'asw'
p389
aS'ataq, yemen'
p390
aS'axk'
p391
aS'athens, ga'
p392
aS'ahn'
p393
aS'athens, greece'
p394
aS'ath'
p395
aS'atiu island, cook islands'
p396
aS'aiu'
p397
aS'atka, ak'
p398
aS'akb'
p399
aS'atlanta, ga'
p400
aS'atl'
p401
aS'atlantic city, nj'
p402
aS'aiy'
p403
aS'atoifi, solomon islands'
p404
aS'atd'
p405
aS'atqasuk, ak'
p406
aS'atk'
p407
aS'attawapiskat, on'
p408
aS'yat'
p409
aS'atuona, french polynesia'
p410
aS'auq'
p411
aS'atyrau, kazakhstan'
p412
aS'guw'
p413
aS'auckland, new zealand'
p414
aS'akl'
p415
aS'augsburg/munich, germany'
p416
aS'agb'
p417
aS'augusta, ga'
p418
aS'ags'
p419
aS'augusta, me'
p420
aS'aug'
p421
aS'auki, solomon islands'
p422
aS'aks'
p423
aS'aupaluk, qc'
p424
aS'ypj'
p425
aS'aur island, marshall islands'
p426
aS'aul'
p427
aS'aurangabad, india'
p428
aS'ixu'
p429
aS'aurillac, france'
p430
aS'aur'
p431
aS'aurukun, australia'
p432
aS'auu'
p433
aS'austin, tx'
p434
aS'aus'
p435
aS'avignon, france'
p436
aS'avn'
p437
aS'ayawaki, indonesia'
p438
aS'ayw'
p439
aS'ayers rock, australia'
p440
aS'ayq'
p441
aS'babo, indonesia'
p442
aS'bxb'
p443
aS'bacolod, philippines'
p444
aS'bcd'
p445
aS'badajcz, spain'
p446
aS'bjz'
p447
aS'bade, indonesia'
p448
aS'bxd'
p449
aS'badu island, australia'
p450
aS'bdd'
p451
aS'bagdogra, india'
p452
aS'ixb'
p453
aS'bagotville, qc'
p454
aS'ybg'
p455
aS'baharpar, ethiopia'
p456
aS'bjr'
p457
aS'bahawalpur, pakistan'
p458
aS'bhv'
p459
aS'bahia blanca, argentina'
p460
aS'bhi'
p461
aS'bahia pinas, panama'
p462
aS'bfq'
p463
aS'bahia solano, colombia'
p464
aS'bsc'
p465
aS'bahrain, bahrain'
p466
aS'bah'
p467
aS'baia mare, romania'
p468
aS'bay'
p469
aS'baie comeau, qc'
p470
aS'ybc'
p471
aS'baimuru, papua new guinea'
p472
aS'vmu'
p473
aS'baker lake, nu'
p474
aS'ybk'
p475
aS'bakersfield, ca'
p476
aS'bfl'
p477
aS'baku, azerbaijan'
p478
aS'gyd'
p479
aS'balalae, solomon islands'
p480
aS'bas'
p481
aS'balikesir, turkey'
p482
aS'bzi'
p483
aS'balikpapan, indonesia'
p484
aS'bpn'
p485
aS'balimo, papua new guinea'
p486
aS'opu'
p487
aS'ballina, australia'
p488
aS'bnk'
p489
aS'balmaceda, chile'
p490
aS'bba'
p491
aS'baltimore, md'
p492
aS'bwi'
p493
aS'bam, iran'
p494
aS'bxr'
p495
aS'bamaga, australia'
p496
aS'abm'
p497
aS'bamako, mali'
p498
aS'bko'
p499
aS'banda aceh, indonesia'
p500
aS'btj'
p501
aS'bandar abbas, iran'
p502
aS'bnd'
p503
aS'bandar lampung, indonesia - branti'
p504
aS'tkg'
p505
aS'bandar lengeh, iran'
p506
aS'bdh'
p507
aS'bandar seri begawan, brunei'
p508
aS'bwn'
p509
aS'bandung, indonesia'
p510
aS'bdo'
p511
aS'bangalore, india'
p512
aS'blr'
p513
aS'bangda, china'
p514
aS'bpx'
p515
aS'bangkok, thailand'
p516
aS'bkk'
p517
aS'bangor, me'
p518
aS'bgr'
p519
aS'banja luka, bosnia herzegovina'
p520
aS'bnx'
p521
aS'banjarmasin, indonesia'
p522
aS'bdj'
p523
aS'banjul, gambia'
p524
aS'bjl'
p525
aS'banmethuot, viet nam - phung-doc'
p526
aS'bmv'
p527
aS'bannu, pakistan'
p528
aS'bnp'
p529
aS'banqui, central african republic'
p530
aS'bgf'
p531
aS'baoshan, china'
p532
aS'bsd'
p533
aS'baotou, china'
p534
aS'bav'
p535
aS'bar harbour, me'
p536
aS'bhb'
p537
aS'baracoa, cuba'
p538
aS'bca'
p539
aS'barcaldine, australia'
p540
aS'bci'
p541
aS'barcelona, spain'
p542
aS'bcn'
p543
aS'barcelona, venezuela'
p544
aS'bla'
p545
aS'bardufoss, norway'
p546
aS'bdu'
p547
aS'bari, italy'
p548
aS'bri'
p549
aS'barinas, venezuela'
p550
aS'bns'
p551
aS'bario, malaysia'
p552
aS'bbn'
p553
aS'barisal, bangladesh'
p554
aS'bzl'
p555
aS'barnaul, russia'
p556
aS'bax'
p557
aS'barquisimeto, venezuela'
p558
aS'brm'
p559
aS'barra colorado, costa rica'
p560
aS'bcl'
p561
aS'barra, united kingdom'
p562
aS'brr'
p563
aS'barran cabermeja, colombia'
p564
aS'eja'
p565
aS'barranquilla, colombia'
p566
aS'baq'
p567
aS'barreiras, brazil'
p568
aS'bra'
p569
aS'barrow, ak'
p570
aS'brw'
p571
aS'barter island, ak'
p572
aS'bti'
p573
aS'basco, philippines'
p574
aS'bso'
p575
aS'basel, switzerland'
p576
aS'bsl'
p577
aS'basel/mulhouse railway station, switzerland'
p578
aS'zdh'
p579
aS'bashehr, iran'
p580
aS'buz'
p581
aS'bastia, france'
p582
aS'bia'
p583
aS'batam, indonesia'
p584
aS'bth'
p585
aS'bathhurst, nb'
p586
aS'zbf'
p587
aS'bathurst island, australia'
p588
aS'brt'
p589
aS'bathurst, australia'
p590
aS'bhs'
p591
aS'batman, turkey'
p592
aS'bal'
p593
aS'batna, algeria'
p594
aS'blj'
p595
aS'batom, indonesia'
p596
aS'bxm'
p597
aS'baton rouge, la'
p598
aS'btr'
p599
aS'batsfijord, norway'
p600
aS'bjf'
p601
aS'battambang, cambodia'
p602
aS'bbm'
p603
aS'batumi, georgia'
p604
aS'bus'
p605
aS'batuna, solomon islands'
p606
aS'bpf'
p607
aS'bauru, brazil'
p608
aS'bau'
p609
aS'bay city, mi'
p610
aS'mbs'
p611
aS'bayamo, cuba'
p612
aS'bym'
p613
aS'bayreuth, germany'
p614
aS'byu'
p615
aS'bearskin lake, on'
p616
aS'xbe'
p617
aS'beaumont/port arthur, tx'
p618
aS'bpt'
p619
aS'beaver creek, co - van service'
p620
aS'zbv'
p621
aS'beaver, ak'
p622
aS'wbq'
p623
aS'bechar, algeria'
p624
aS'cbh'
p625
aS'beckley, wv'
p626
aS'bkw'
p627
aS'bedford, ma'
p628
aS'bed'
p629
aS'bedourie, australia'
p630
aS'beu'
p631
aS'beef island, british virgin islands'
p632
aS'eis'
p633
aS'beica, ethiopia'
p634
aS'bei'
p635
aS'beida, libya - la braq'
p636
aS'laq'
p637
aS'beihai, china'
p638
aS'bhy'
p639
aS'beijing, china'
p640
aS'pek'
p641
aS'beira, mozambique'
p642
aS'bew'
p643
aS'beirut, lebanon'
p644
aS'bey'
p645
aS'bejaia, algeria'
p646
aS'bja'
p647
aS'belaga, mozambique'
p648
aS'blg'
p649
aS'belem, brazil'
p650
aS'bel'
p651
aS'belep island, new caledonia'
p652
aS'bmy'
p653
aS'belfast, northern ireland, united kingdom'
p654
aS'bfs'
p655
aS'belfast, united kingdom'
p656
aS'bhd'
p657
aS'belgorod, russia'
p658
aS'ego'
p659
aS'belgrade, serbia and montenegro - beograd'
p660
aS'beg'
p661
aS'belize city, belize - international'
p662
aS'bze'
p663
aS'belize city, belize - municipal'
p664
aS'tza'
p665
aS'bella bella, bc'
p666
aS'zel'
p667
aS'bella coola, bc'
p668
aS'qbc'
p669
aS'belleville, il'
p670
aS'blv'
p671
aS'belleville, on - rail service'
p672
aS'xvv'
p673
aS'bellingham, wa'
p674
aS'bli'
p675
aS'bellona, solomon islands'
p676
aS'bny'
p677
aS'belo horizonte, brazil - pampulha'
p678
aS'plu'
p679
aS'belo horizonte, brazil - tancredo neves intl.'
p680
aS'cnf'
p681
aS'belo, madagascar'
p682
aS'bmd'
p683
aS'bemidji, mn'
p684
aS'bji'
p685
aS'benbecula, united kingdom'
p686
aS'beb'
p687
aS'benghazi, libya'
p688
aS'ben'
p689
aS'bengkulu, indonesia'
p690
aS'bks'
p691
aS'benton harbor, mi'
p692
aS'beh'
p693
aS'berau, indonesia'
p694
aS'bej'
p695
aS'berbera, somalia'
p696
aS'bbo'
p697
aS'berens river, mb'
p698
aS'ybv'
p699
aS'bergen, norway'
p700
aS'bgo'
p701
aS'bergerac, france'
p702
aS'egc'
p703
aS'berlevag, norway'
p704
aS'bvg'
p705
aS'berlin, germany - all airports'
p706
aS'ber'
p707
aS'berlin, germany - schoenefeld'
p708
aS'sxf'
p709
aS'berlin, germany - tegel'
p710
aS'txl'
p711
aS'berlin, germany - tempelhof'
p712
aS'thf'
p713
aS'bermuda, bermuda'
p714
aS'bda'
p715
aS'berne, switzerland - belp airport'
p716
aS'brn'
p717
aS'berne, switzerland - rail service'
p718
aS'zdj'
p719
aS'besalampy, madagascar'
p720
aS'bpy'
p721
aS'bethel, ak'
p722
aS'bet'
p723
aS'bethlehem, pa'
p724
aS'abe'
p725
aS'bettles, ak'
p726
aS'btt'
p727
aS'beziers, france'
p728
aS'bzr'
p729
aS'bhadrapur, nepal'
p730
aS'bdp'
p731
aS'bhairawa, nepal'
p732
aS'bwa'
p733
aS'bhamo, myanmar'
p734
aS'bmo'
p735
aS'bharatpur, nepal'
p736
aS'bhr'
p737
aS'bhavnagar, india'
p738
aS'bhu'
p739
aS'bhopal, india'
p740
aS'bho'
p741
aS'bhubaneswar, india'
p742
aS'bbi'
p743
aS'bhuj, india'
p744
aS'bhj'
p745
aS'biak, indonesia'
p746
aS'bik'
p747
aS'biarritz, france'
p748
aS'biq'
p749
aS'big trout, on'
p750
aS'ytl'
p751
aS'bikini atoll, marshall islands'
p752
aS'bii'
p753
aS'bilbao, spain'
p754
aS'bio'
p755
aS'billings, mt'
p756
aS'bil'
p757
aS'billund, denmark'
p758
aS'bll'
p759
aS'biloxi/gulfport, ms'
p760
aS'gpt'
p761
aS'bima, indonesia'
p762
aS'bmu'
p763
aS'bimini, bahamas'
p764
aS'bim'
p765
aS'bimini, bahamas'
p766
aS'nsb'
p767
aS'binghamton, ny'
p768
aS'bgm'
p769
aS'bintulu, malaysia'
p770
aS'btu'
p771
aS'bintuni, indonesia'
p772
aS'nti'
p773
aS'biratragar, nepal'
p774
aS'bir'
p775
aS'birch creek, ak'
p776
aS'kbc'
p777
aS'birdsville, australia'
p778
aS'bvi'
p779
aS'birmingham, al'
p780
aS'bhm'
p781
aS'birmingham, united kingdom'
p782
aS'bhx'
p783
aS'bisha, saudi arabia'
p784
aS'bhh'
p785
aS'bishkek, kyrgyzstan'
p786
aS'fru'
p787
aS'biskra, algeria'
p788
aS'bsk'
p789
aS'bismarck, nd'
p790
aS'bis'
p791
aS'bissau, guinea-bissau'
p792
aS'oxb'
p793
aS'black tickle, nl'
p794
aS'ybi'
p795
aS'blackall, australia'
p796
aS'bkq'
p797
aS'blackpool, united kingdom'
p798
aS'blk'
p799
aS'blackwater, australia'
p800
aS'blt'
p801
aS'blagoveschensk, russia'
p802
aS'bqs'
p803
aS'blanc sablon, qc'
p804
aS'ybx'
p805
aS'blantyre, malawi'
p806
aS'blz'
p807
aS'blenheim, new zealand'
p808
aS'bhe'
p809
aS'blo horizonte, brazil'
p810
aS'cnf'
p811
aS'block island, ri'
p812
aS'bid'
p813
aS'bloemfontein, south africa'
p814
aS'bfn'
p815
aS'bloomington, il'
p816
aS'bmi'
p817
aS'bluefield, wv'
p818
aS'blf'
p819
aS'boa vista, cape verde'
p820
aS'bvc'
p821
aS'boang, papua new guinea'
p822
aS'bov'
p823
aS'boavista, brazil'
p824
aS'bvb'
p825
aS'bocas del toro, panama'
p826
aS'boc'
p827
aS'bodo, norway'
p828
aS'boo'
p829
aS'bodrum, turkey'
p830
aS'bjv'
p831
aS'bogota, colombia'
p832
aS'bog'
p833
aS'boiju island, australia'
p834
aS'gic'
p835
aS'boise, id'
p836
aS'boi'
p837
aS'bojnord, iran'
p838
aS'bjb'
p839
aS'bokondini, indonesia'
p840
aS'bui'
p841
aS'bol, croatia'
p842
aS'bwk'
p843
aS'bolzano, italy'
p844
aS'bzo'
p845
aS'boma, congo'
p846
aS'boa'
p847
aS'bombay, india'
p848
aS'bom'
p849
aS'bonaire, netherlands antilles'
p850
aS'bon'
p851
aS'bonaventure, qc'
p852
aS'yvb'
p853
aS'bonn, germany'
p854
aS'bnj'
p855
aS'bora bora, french polynesia'
p856
aS'bob'
p857
aS'bordeaux, france'
p858
aS'bod'
p859
aS'borg el arab, egypt'
p860
aS'hbe'
p861
aS'borkum, germany'
p862
aS'bmk'
p863
aS'borlange, sweden'
p864
aS'ble'
p865
aS'bornholm, denmark'
p866
aS'rnn'
p867
aS'borroloola, australia'
p868
aS'box'
p869
aS'bossaro, somalia'
p870
aS'bsa'
p871
aS'boston, ma'
p872
aS'bos'
p873
aS'boulder, co - bus service'
p874
aS'xhh'
p875
aS'boulder, co - hiltons har h'
p876
aS'whh'
p877
aS'boulder, co - municipal airport'
p878
aS'wbu'
p879
aS'boulia, australia'
p880
aS'bql'
p881
aS'boundary, ak'
p882
aS'bya'
p883
aS'bourgas, bulgaria'
p884
aS'boj'
p885
aS'bourke, australia'
p886
aS'brk'
p887
aS'bournemouth, united kingdom'
p888
aS'boh'
p889
aS'bowling green, ky'
p890
aS'bwg'
p891
aS'bozeman, mt'
p892
aS'bzn'
p893
aS'brack, libya'
p894
aS'bcq'
p895
aS'bradford, pa'
p896
aS'bfd'
p897
aS'brainerd, mn'
p898
aS'brd'
p899
aS'brampton island, australia'
p900
aS'bmp'
p901
aS'brampton, on - rail service'
p902
aS'xpn'
p903
aS'brandon, mb'
p904
aS'ybr'
p905
aS'brantford, on - rail service'
p906
aS'xfv'
p907
aS'brasilia, df, brazil'
p908
aS'bsb'
p909
aS'bratislava, slovakia'
p910
aS'bts'
p911
aS'bratsk, russia'
p912
aS'btk'
p913
aS'braunschweig, denmark'
p914
aS'bwe'
p915
aS'brawnwood, tx'
p916
aS'bwd'
p917
aS'brazzaville, congo'
p918
aS'bzv'
p919
aS'breckenridge, co - van service'
p920
aS'qkb'
p921
aS'bremen, germany'
p922
aS'bre'
p923
aS'brest, france'
p924
aS'bes'
p925
aS'brewarrina, australia'
p926
aS'bwq'
p927
aS'bridgetown, barbados'
p928
aS'bgi'
p929
aS'brindisi, italy'
p930
aS'bds'
p931
aS'brisbane, queensland, australia'
p932
aS'bne'
p933
aS'bristol, united kingdom'
p934
aS'brs'
p935
aS'bristol, va'
p936
aS'tri'
p937
aS'brive-la-gaillarde, france - laroche'
p938
aS'bve'
p939
aS'brno, czech republic - bus service'
p940
aS'zdn'
p941
aS'brno, czech republic - turany'
p942
aS'brq'
p943
aS'brochet, mb'
p944
aS'ybt'
p945
aS'brockville, on'
p946
aS'xbr'
p947
aS'broken hill, australia'
p948
aS'bhq'
p949
aS'bronnoysund, norway'
p950
aS'bnn'
p951
aS'brookings, sd'
p952
aS'bkx'
p953
aS'brooks lodge, ak'
p954
aS'rbh'
p955
aS'broome, australia'
p956
aS'bme'
p957
aS'brownsville, tx'
p958
aS'bro'
p959
aS'brunswick, ga'
p960
aS'bqk'
p961
aS'brus laguna, honduras'
p962
aS'bhg'
p963
aS'brussels, belgium - national'
p964
aS'bru'
p965
aS'brussels, belgium - rail service'
p966
aS'zyr'
p967
aS'brussels, belguim - charleroi'
p968
aS'crl'
p969
aS'bucaramanga, colombia'
p970
aS'bga'
p971
aS'bucharest, romania - baneasa'
p972
aS'bbu'
p973
aS'bucharest, romania - otopeni international'
p974
aS'otp'
p975
aS'buckland, ak'
p976
aS'bkc'
p977
aS'budapest, hungary'
p978
aS'bud'
p979
aS'buenos aires, argentina - jorge newbery'
p980
aS'aep'
p981
aS'buenos aires, argentina - ministro pistarini'
p982
aS'eze'
p983
aS'buffalo, ny'
p984
aS'buf'
p985
aS'bugulma, russia'
p986
aS'uua'
p987
aS'bujumbura, burundi'
p988
aS'bjm'
p989
aS'buka, papua new guinea'
p990
aS'bua'
p991
aS'bukhara, uzbekistan'
p992
aS'bhk'
p993
aS'bukoba, malaysia'
p994
aS'bkz'
p995
aS'bulawayo, zimbabwe'
p996
aS'buq'
p997
aS'bulgulma, russia'
p998
aS'uua'
p999
aS'bullhead city/laughlin, az'
p1000
aS'ifp'
p1001
aS'bundaberg, australia'
p1002
aS'bdb'
p1003
aS'bunsil, papua new guinea'
p1004
aS'bxz'
p1005
aS'burao, somalia'
p1006
aS'buo'
p1007
aS'burbank, ca'
p1008
aS'bur'
p1009
aS'bureta, fiji'
p1010
aS'lev'
p1011
aS'buri ram, thailand'
p1012
aS'bfv'
p1013
aS'burketown, australia'
p1014
aS'buc'
p1015
aS'burlington, ia'
p1016
aS'brl'
p1017
aS'burlington, vt'
p1018
aS'btv'
p1019
aS'burnie, australia'
p1020
aS'bwt'
p1021
aS'burns lake, bc'
p1022
aS'ypz'
p1023
aS'busan, south korea - gimhae'
p1024
aS'pus'
p1025
aS'butte, mt'
p1026
aS'btm'
p1027
aS'butuan, philippines'
p1028
aS'bxu'
p1029
aS'bydgoszcz, poland'
p1030
aS'bzg'
p1031
aS"cabo san lucas, 'los cabos', mexico"
p1032
aS'sjd'
p1033
aS'caen, france'
p1034
aS'cfr'
p1035
aS'cagayan de oro, philippines - lumbia'
p1036
aS'cgy'
p1037
aS'cagliari, italy'
p1038
aS'cag'
p1039
aS'cairns, australia'
p1040
aS'cns'
p1041
aS'cairo, egypt'
p1042
aS'cai'
p1043
aS'cajamarca, peru'
p1044
aS'cja'
p1045
aS'calabar, nigeria'
p1046
aS'cbq'
p1047
aS'calama, chile'
p1048
aS'cjc'
p1049
aS'calcutta, india'
p1050
aS'ccu'
p1051
aS'calgary, ab'
p1052
aS'yyc'
p1053
aS'cali, colombia'
p1054
aS'clo'
p1055
aS'calvi, france'
p1056
aS'cly'
p1057
aS'camaguey, cuba'
p1058
aS'cmw'
p1059
aS'cambridge bay, nu'
p1060
aS'ycb'
p1061
aS'cambridge, united kingdom'
p1062
aS'cbg'
p1063
aS'camodoro, argentina'
p1064
aS'crd'
p1065
aS'campbell river, bc'
p1066
aS'ybl'
p1067
aS'campbellton, nb - rail service'
p1068
aS'xaz'
p1069
aS'campbeltown, united kingdom'
p1070
aS'cal'
p1071
aS'campeche, mexico'
p1072
aS'cpe'
p1073
aS'campina grande, brazil'
p1074
aS'cpv'
p1075
aS'campinas, brazil'
p1076
aS'cpq'
p1077
aS'campo grande, brazil'
p1078
aS'cgr'
p1079
aS'campos, brazil'
p1080
aS'caw'
p1081
aS'canaima, venezuela'
p1082
aS'cas'
p1083
aS'canberra, australia'
p1084
aS'cbr'
p1085
aS'cancun, mexico'
p1086
aS'cun'
p1087
aS'cannes, france - coisette heliport'
p1088
aS'jca'
p1089
aS'cannes, france - mandelieu'
p1090
aS'ceq'
p1091
aS'cannes, france - vieux port'
p1092
aS'qyw'
p1093
aS'canouan, saint vincent and the grenadines'
p1094
aS'ciw'
p1095
aS'canton/akron, oh'
p1096
aS'cak'
p1097
aS'cap haitien, haiti'
p1098
aS'cap'
p1099
aS'cape dorset, nu'
p1100
aS'yte'
p1101
aS'cape girardeau, mo'
p1102
aS'cgi'
p1103
aS'cape lisburne, ak'
p1104
aS'lur'
p1105
aS'cape newenham, ak'
p1106
aS'ehm'
p1107
aS'cape orford, papua new guinea'
p1108
aS'cpi'
p1109
aS'cape town, south africa'
p1110
aS'cpt'
p1111
aS'cape vogel, papua new guinea'
p1112
aS'cvl'
p1113
aS'capreol, on - rail service'
p1114
aS'xaw'
p1115
aS'caracas, venezuela'
p1116
aS'ccs'
p1117
aS'carajas, brazil'
p1118
aS'cks'
p1119
aS'carbondale, il'
p1120
aS'mdh'
p1121
aS'carcassonne, france'
p1122
aS'ccf'
p1123
aS'cardiff, united kingdom'
p1124
aS'cwl'
p1125
aS'carlsbad, ca'
p1126
aS'cld'
p1127
aS'carlsbad, nm'
p1128
aS'cnm'
p1129
aS'carmel, ca'
p1130
aS'mry'
p1131
aS'carnarvon, australia'
p1132
aS'cvq'
p1133
aS'carrillo, costa rica'
p1134
aS'rik'
p1135
aS'cartagena, colombia'
p1136
aS'ctg'
p1137
aS'cartwright, nl'
p1138
aS'yrf'
p1139
aS'carupani, venezuela'
p1140
aS'cup'
p1141
aS'casablanca, morocco - anfa'
p1142
aS'cas'
p1143
aS'casablanca, morocco - mohamed v'
p1144
aS'cmn'
p1145
aS'cascavel, brazil'
p1146
aS'cac'
p1147
aS'casino, australia'
p1148
aS'csi'
p1149
aS'casper, wy'
p1150
aS'cpr'
p1151
aS'casselman, on - rail service'
p1152
aS'xzb'
p1153
aS'castaway, fiji'
p1154
aS'cst'
p1155
aS'castlegar, bc'
p1156
aS'ycg'
p1157
aS'castres, france'
p1158
aS'dcm'
p1159
aS'cat lake, on'
p1160
aS'yac'
p1161
aS'catamarca, argentina'
p1162
aS'ctc'
p1163
aS'catania, italy'
p1164
aS'cta'
p1165
aS'caucasia, colombia'
p1166
aS'caq'
p1167
aS'caxias do sul, brazil'
p1168
aS'cxj'
p1169
aS'cayenne, french guiana'
p1170
aS'cay'
p1171
aS'cayman brac is, cambodia'
p1172
aS'cyb'
p1173
aS'cayo largo del sur, cuba'
p1174
aS'cyo'
p1175
aS'cebu, philippines - matan international'
p1176
aS'ceb'
p1177
aS'cedar city, ut'
p1178
aS'cdc'
p1179
aS'cedar rapids, ia'
p1180
aS'cid'
p1181
aS'cedun, australia'
p1182
aS'ced'
p1183
aS'central, ak'
p1184
aS'cem'
p1185
aS'ceuta, spain and canary islands'
p1186
aS'jcu'
p1187
aS'chadron, ne'
p1188
aS'cdr'
p1189
aS'chah-bahar, iran'
p1190
aS'zbr'
p1191
aS'chalkyitsik, ak'
p1192
aS'cik'
p1193
aS'chambery, france'
p1194
aS'cmf'
p1195
aS'chambord, qc - rail service'
p1196
aS'xci'
p1197
aS'champaign/urbana, il'
p1198
aS'cmi'
p1199
aS'chandigarh, india'
p1200
aS'ixc'
p1201
aS'chandler, qc - rail service'
p1202
aS'xdl'
p1203
aS'changchun, china'
p1204
aS'cgq'
p1205
aS'changde, china'
p1206
aS'cgd'
p1207
aS'changuinda, panama'
p1208
aS'chx'
p1209
aS'changzhou, china'
p1210
aS'czx'
p1211
aS'chania, greece'
p1212
aS'chq'
p1213
aS'chaoyang, china'
p1214
aS'chg'
p1215
aS'chapeco, brazil'
p1216
aS'xap'
p1217
aS'chapleau, on'
p1218
aS'yld'
p1219
aS'charleston, sc'
p1220
aS'chs'
p1221
aS'charleston, wv'
p1222
aS'crw'
p1223
aS'charleville, australia'
p1224
aS'ctl'
p1225
aS'charlotte, nc'
p1226
aS'clt'
p1227
aS'charlottesville, va'
p1228
aS'cho'
p1229
aS'charlottetown, nl'
p1230
aS'yhg'
p1231
aS'charlottetown, pe'
p1232
aS'yyg'
p1233
aS'chatham island, new zealand'
p1234
aS'cht'
p1235
aS'chatham, on'
p1236
aS'xcm'
p1237
aS'chattanooga, tn'
p1238
aS'cha'
p1239
aS'cheboksary, russia'
p1240
aS'csy'
p1241
aS'chefornak, ak'
p1242
aS'cyf'
p1243
aS'chelybinsk, russia'
p1244
aS'cek'
p1245
aS'chemainus, bc - rail service'
p1246
aS'xhs'
p1247
aS'chennai, india'
p1248
aS'maa'
p1249
aS'cheongju, south korea'
p1250
aS'cjj'
p1251
aS'cherepovets, russia'
p1252
aS'cee'
p1253
aS'chergdu, china'
p1254
aS'ctu'
p1255
aS'chester, united kingdom'
p1256
aS'ceg'
p1257
aS'chesterfield inlet, nu'
p1258
aS'ycs'
p1259
aS'chetumal, mexico'
p1260
aS'ctm'
p1261
aS'chevak, ak'
p1262
aS'vak'
p1263
aS'chevepovets, russia'
p1264
aS'cee'
p1265
aS'chevery, qc'
p1266
aS'yhr'
p1267
aS'cheyenne, wy'
p1268
aS'cys'
p1269
aS'chi mei, taiwan'
p1270
aS'cmj'
p1271
aS'chiang mai, thailand'
p1272
aS'cnx'
p1273
aS'chiang rai, thailand'
p1274
aS'cei'
p1275
aS'chiayi, taiwan'
p1276
aS'cyi'
p1277
aS'chibougamau, qc'
p1278
aS'ymt'
p1279
aS'chicago, il - all airports'
p1280
aS'chi'
p1281
aS'chicago, il - midway'
p1282
aS'mdw'
p1283
aS"chicago, il - o'hare"
p1284
aS'ord'
p1285
aS'chicayo, peru'
p1286
aS'cix'
p1287
aS'chicken, ak'
p1288
aS'ckx'
p1289
aS'chico, ca'
p1290
aS'cic'
p1291
aS'chifeng, china'
p1292
aS'cif'
p1293
aS'chignik, ak -'
p1294
aS'kcq'
p1295
aS'chignik, ak - fisheries'
p1296
aS'kcg'
p1297
aS'chignik, ak - lagoon'
p1298
aS'kcl'
p1299
aS'chihuahua, mexico'
p1300
aS'cuu'
p1301
aS'chillan, chile'
p1302
aS'yai'
p1303
aS'chipata, zambia'
p1304
aS'cip'
p1305
aS'chisana, ak'
p1306
aS'czn'
p1307
aS'chisasibi, qc'
p1308
aS'yku'
p1309
aS'chisholm/hibbing, mn'
p1310
aS'hib'
p1311
aS'chisinau, republic of moldova'
p1312
aS'kiv'
p1313
aS'chita, russia'
p1314
aS'hta'
p1315
aS'chitral, pakistan'
p1316
aS'cjl'
p1317
aS'chitre, panama'
p1318
aS'ctd'
p1319
aS'chittagong, bangladesh'
p1320
aS'cgp'
p1321
aS'choiseul bay, solomon islands'
p1322
aS'chy'
p1323
aS'chongqing, china'
p1324
aS'ckg'
p1325
aS'christchurch, new zealand'
p1326
aS'chc'
p1327
aS'christmas island, christmas island'
p1328
aS'xch'
p1329
aS'chuathbaluk, ak'
p1330
aS'chu'
p1331
aS'churchill falls, nl'
p1332
aS'zum'
p1333
aS'churchill, mb'
p1334
aS'yyq'
p1335
aS'churchill, mb - rail service'
p1336
aS'xad'
p1337
aS'cicia, fiji'
p1338
aS'ici'
p1339
aS'ciego de avila, cuba'
p1340
aS'avi'
p1341
aS'cincinnati, oh'
p1342
aS'cvg'
p1343
aS'circle hot springs, ak'
p1344
aS'chp'
p1345
aS'circle, ak'
p1346
aS'irc'
p1347
aS'ciudad bolivar, venezuela'
p1348
aS'cbl'
p1349
aS'ciudad del carmen, mexico'
p1350
aS'cme'
p1351
aS'ciudad del este, paraguay'
p1352
aS'agt'
p1353
aS'ciudad juarez, mexico'
p1354
aS'cjs'
p1355
aS'ciudad obregon, mexico'
p1356
aS'cen'
p1357
aS'ciudad victoria, mexico'
p1358
aS'cvm'
p1359
aS'clarks point, ak'
p1360
aS'clp'
p1361
aS'clarksburg, wv'
p1362
aS'ckb'
p1363
aS'clearwater/st petersburg, fl'
p1364
aS'pie'
p1365
aS'clermont-ferrand, france'
p1366
aS'cfe'
p1367
aS'cleve, australia'
p1368
aS'cvc'
p1369
aS'cleveland, oh'
p1370
aS'cle'
p1371
aS'cloncurry, australia'
p1372
aS'cnj'
p1373
aS'clovis, nm'
p1374
aS'cvn'
p1375
aS'club makokola, malawi'
p1376
aS'cmk'
p1377
aS'cluj, romania'
p1378
aS'clj'
p1379
aS'clyde river, nu'
p1380
aS'ycy'
p1381
aS'cobar, australia'
p1382
aS'caz'
p1383
aS'cobija, bolivia'
p1384
aS'cij'
p1385
aS'cobourg, on - rail service'
p1386
aS'xgj'
p1387
aS'cochabamba, bolivia'
p1388
aS'cbb'
p1389
aS'cochin, india'
p1390
aS'cok'
p1391
aS'coconut island, australia'
p1392
aS'cnc'
p1393
aS'cocos islands, cocos'
p1394
aS'keeling'
p1395
aS'cody/yellowstone, wy'
p1396
aS'cod'
p1397
aS'coen, australia'
p1398
aS'cuq'
p1399
aS'coffee point, ak'
p1400
aS'cfa'
p1401
aS'coffman cove, ak'
p1402
aS'kcc'
p1403
aS'coffs harbor, australia'
p1404
aS'cfs'
p1405
aS'coimbatore, india'
p1406
aS'cjb'
p1407
aS'cold bay, ak'
p1408
aS'cdb'
p1409
aS'colima, mexico'
p1410
aS'clq'
p1411
aS'college station, tx'
p1412
aS'cll'
p1413
aS'cologne, germany - cologne/bonn'
p1414
aS'cgn'
p1415
aS'cologne, germany - rail service'
p1416
aS'qkl'
p1417
aS'colombo, sri lanka'
p1418
aS'cmb'
p1419
aS'colon, panama'
p1420
aS'onx'
p1421
aS'colorado springs, co'
p1422
aS'cos'
p1423
aS'columbia, mo'
p1424
aS'cou'
p1425
aS'columbia, sc'
p1426
aS'cae'
p1427
aS'columbus, ga'
p1428
aS'csg'
p1429
aS'columbus, ms'
p1430
aS'gtr'
p1431
aS'columbus, oh'
p1432
aS'cmh'
p1433
aS'colville lake, nt'
p1434
aS'yck'
p1435
aS'comox, bc'
p1436
aS'yqq'
p1437
aS'conakry, guinea'
p1438
aS'cky'
p1439
aS'concepcion, chile'
p1440
aS'ccp'
p1441
aS'concord, ca'
p1442
aS'ccr'
p1443
aS'concordia, argentina'
p1444
aS'coc'
p1445
aS'concordia, ks'
p1446
aS'cnk'
p1447
aS'condoto, colombia'
p1448
aS'cog'
p1449
aS'constanta, romania'
p1450
aS'cnd'
p1451
aS'constantine, algeria'
p1452
aS'czl'
p1453
aS'contadora, panama'
p1454
aS'otd'
p1455
aS'coober pedy, australia'
p1456
aS'cpd'
p1457
aS'cooktown, australia'
p1458
aS'ctn'
p1459
aS'cooma, ns, australia'
p1460
aS'oom'
p1461
aS'coonamble, australia'
p1462
aS'cnb'
p1463
aS'copenhagen, denmark'
p1464
aS'cph'
p1465
aS'copiapo, chile'
p1466
aS'cpo'
p1467
aS'copper mountain, co - van service'
p1468
aS'qce'
p1469
aS'coral harbour, nu'
p1470
aS'yzs'
p1471
aS'cordoba, argentina'
p1472
aS'cor'
p1473
aS'cordova, ak'
p1474
aS'cdv'
p1475
aS'cork, ireland'
p1476
aS'ork'
p1477
aS'cornwall, on'
p1478
aS'ycc'
p1479
aS'coro, venezuela'
p1480
aS'cze'
p1481
aS'corozal, belize'
p1482
aS'czh'
p1483
aS'corpus christi, tx'
p1484
aS'crp'
p1485
aS'corrientes, argentina'
p1486
aS'cnq'
p1487
aS'cortez, co'
p1488
aS'cez'
p1489
aS'corumba, brazil'
p1490
aS'cmg'
p1491
aS'corvo island, portugal'
p1492
aS'cvu'
p1493
aS'cotabato, philippines'
p1494
aS'cbo'
p1495
aS'cotarou, benin'
p1496
aS'coc'
p1497
aS'coteau, qc - rail service'
p1498
aS'xgk'
p1499
aS'courtenay, bc'
p1500
aS'yca'
p1501
aS"cox's bazar, bangladesh"
p1502
aS'cxb'
p1503
aS'cozumel, mexico'
p1504
aS'czm'
p1505
aS'craig cove, vanuatu'
p1506
aS'ccv'
p1507
aS'craig, ak'
p1508
aS'cga'
p1509
aS'cranbrook, bc'
p1510
aS'yxc'
p1511
aS'crescent city, ca'
p1512
aS'cec'
p1513
aS'criciuma, brazil'
p1514
aS'ccm'
p1515
aS'croker island, australia'
p1516
aS'cki'
p1517
aS'crooked creek, ak'
p1518
aS'cko'
p1519
aS'crooked island, bahamas'
p1520
aS'cri'
p1521
aS'cross lake, mb'
p1522
aS'ycr'
p1523
aS'crotone, italy'
p1524
aS'crv'
p1525
aS'cruzeiro do sul, brazil'
p1526
aS'czs'
p1527
aS'cube cove, ak'
p1528
aS'cuw'
p1529
aS'cucata, colombia'
p1530
aS'cuc'
p1531
aS'cuenca, ecuador'
p1532
aS'cue'
p1533
aS'cuernavaca, mexico'
p1534
aS'cvj'
p1535
aS'cuiaba, brazil'
p1536
aS'cgb'
p1537
aS'culiacan, mexico'
p1538
aS'cul'
p1539
aS'cumana, venezuela'
p1540
aS'cum'
p1541
aS'cumberland, md'
p1542
aS'cbe'
p1543
aS'cunnamulla, australia'
p1544
aS'cma'
p1545
aS'curacao, netherlands antilles'
p1546
aS'cur'
p1547
aS'curitiba, brazil'
p1548
aS'cwb'
p1549
aS'cuzco, peru'
p1550
aS'cuz'
p1551
aS'da nang, viet nam'
p1552
aS'dad'
p1553
aS'dabra, indonesia'
p1554
aS'drh'
p1555
aS'daegu, south korea'
p1556
aS'tae'
p1557
aS'dakar, senegal'
p1558
aS'dkr'
p1559
aS'dakhla, morocco'
p1560
aS'vil'
p1561
aS'dalaman, turkey'
p1562
aS'dlm'
p1563
aS'dalat, viet nam - lienkhang dli)'
p1564
aS''
aS'dali city, china'
p1565
aS'dlu'
p1566
aS'dalian, china'
p1567
aS'dlc'
p1568
aS'dallas, tx - dallas/ft worth intl.'
p1569
aS'dfw'
p1570
aS'dallas, tx - love field'
p1571
aS'dal'
p1572
aS'damascus, syrian arab republic'
p1573
aS'dam'
p1574
aS'dammam, saudi arabia'
p1575
aS'dmm'
p1576
aS'dangriga, belize'
p1577
aS'dga'
p1578
aS'dar es salaam, tanzania'
p1579
aS'dar'
p1580
aS'darnley island, ql, australia'
p1581
aS'nlf'
p1582
aS'daru, papua new guinea'
p1583
aS'dau'
p1584
aS'darwin, northern territory, australia'
p1585
aS'drw'
p1586
aS'datadawai, indonesia'
p1587
aS'dtd'
p1588
aS'dauphin, mb'
p1589
aS'ydn'
p1590
aS'davao, philipines - mati'
p1591
aS'dvo'
p1592
aS'david, panama'
p1593
aS'dav'
p1594
aS'davis inlet, nl'
p1595
aS'ydi'
p1596
aS'dawe, myanmar'
p1597
aS'tvy'
p1598
aS'dawson city, yt'
p1599
aS'yda'
p1600
aS'dawson creek, bc'
p1601
aS'ydq'
p1602
aS'daxian, china'
p1603
aS'dax'
p1604
aS'dayang, china'
p1605
aS'dyg'
p1606
aS'daydream is, australia'
p1607
aS'ddi'
p1608
aS'dayton, oh'
p1609
aS'day'
p1610
aS'daytona beach, fl'
p1611
aS'dab'
p1612
aS'deauville, france'
p1613
aS'dol'
p1614
aS'debra marcos, ethiopia'
p1615
aS'dbm'
p1616
aS'debra tabor, ethiopia'
p1617
aS'dbt'
p1618
aS'decatur, il'
p1619
aS'dec'
p1620
aS'deer lake, nl'
p1621
aS'ydf'
p1622
aS'deer lake, on'
p1623
aS'yvz'
p1624
aS'deering, ak'
p1625
aS'drg'
p1626
aS'deirezzor, syria - al jafrah'
p1627
aS'dez'
p1628
aS'del reo, tx'
p1629
aS'drt'
p1630
aS'delhi, india'
p1631
aS'del'
p1632
aS'deline, nt'
p1633
aS'ywj'
p1634
aS'delta junction, ak'
p1635
aS'djn'
p1636
aS'dembidollo, ethiopia'
p1637
aS'dem'
p1638
aS'denham, australia'
p1639
aS'dnm'
p1640
aS'denizli, turkey'
p1641
aS'dnz'
p1642
aS'denpasar bali, indonesia'
p1643
aS'dps'
p1644
aS'denver, co - international'
p1645
aS'den'
p1646
aS'denver, co - longmont bus service'
p1647
aS'qwm'
p1648
aS'dera ghazi, pakistan'
p1649
aS'dea'
p1650
aS'dera ismail khan, pakistan'
p1651
aS'dsk'
p1652
aS'derby, australia'
p1653
aS'drb'
p1654
aS'derim, papua new guinea'
p1655
aS'der'
p1656
aS'des moines, ia'
p1657
aS'dsm'
p1658
aS'dessie, ethiopia'
p1659
aS'dse'
p1660
aS'detroit, mi - all airports'
p1661
aS'dtt'
p1662
aS'detroit, mi - metro/wayne county'
p1663
aS'dtw'
p1664
aS"devil's lake, nd"
p1665
aS'dvl'
p1666
aS'devonport, australia'
p1667
aS'dpo'
p1668
aS'dhaka, bangledesh - zia international'
p1669
aS'dac'
p1670
aS'dibrugarn, india'
p1671
aS'dib'
p1672
aS'dickinson, nd'
p1673
aS'dik'
p1674
aS'dien bien phu, viet nam - gialam'
p1675
aS'din'
p1676
aS'dijon, france'
p1677
aS'dij'
p1678
aS'dili, indonesia'
p1679
aS'dil'
p1680
aS'dillingham, ak'
p1681
aS'dlg'
p1682
aS'dillons bay, vanuata'
p1683
aS'dly'
p1684
aS'dimapur, india'
p1685
aS'dmu'
p1686
aS'dinard, france'
p1687
aS'dnr'
p1688
aS'dipolog, philippines'
p1689
aS'dpl'
p1690
aS'dire dawa, ethiopia'
p1691
aS'dir'
p1692
aS'div, india'
p1693
aS'diu'
p1694
aS'diyarbakir, turkey'
p1695
aS'diy'
p1696
aS'djanet, algeria'
p1697
aS'djg'
p1698
aS'djerba, tunisia'
p1699
aS'dje'
p1700
aS'djibouti, djibouti'
p1701
aS'jib'
p1702
aS'dnepropetrovsk, ukraine'
p1703
aS'dnk'
p1704
aS'dobo, indonesia'
p1705
aS'dob'
p1706
aS'dodge city, ks'
p1707
aS'ddc'
p1708
aS'dodoima, papua new guinea'
p1709
aS'ddm'
p1710
aS'dodoma, tanzania'
p1711
aS'dod'
p1712
aS'doha, qatar'
p1713
aS'doh'
p1714
aS'dominica, dominica - cane field'
p1715
aS'dcf'
p1716
aS'dominica, dominica - melville hall'
p1717
aS'dom'
p1718
aS'donegal, ireland'
p1719
aS'cfn'
p1720
aS'donetsk, ukraine'
p1721
aS'dok'
p1722
aS'dongola, sudan'
p1723
aS'dog'
p1724
aS'doomadgee, australia'
p1725
aS'dmd'
p1726
aS'dortmund, germany'
p1727
aS'dtm'
p1728
aS'dothan, al'
p1729
aS'dhn'
p1730
aS'dourados, brazil'
p1731
aS'dou'
p1732
aS'dovala, cameroon'
p1733
aS'dla'
p1734
aS'dresden, germany'
p1735
aS'drs'
p1736
aS'drummondville, qc - rail service'
p1737
aS'xdm'
p1738
aS'dryden, on'
p1739
aS'yhd'
p1740
aS'dubai, united arab emirates - bus station'
p1741
aS'xnb'
p1742
aS'dubai, united arab emirates - international'
p1743
aS'dxb'
p1744
aS'dubbo, australia'
p1745
aS'dbo'
p1746
aS'dublin, ireland'
p1747
aS'dub'
p1748
aS'dubois, pa'
p1749
aS'duj'
p1750
aS'dubrovnik, croatia'
p1751
aS'dbv'
p1752
aS'dubuque, ia'
p1753
aS'dbq'
p1754
aS'duluth, mn'
p1755
aS'dlh'
p1756
aS'dumaguete, philippines'
p1757
aS'dgt'
p1758
aS'dumai, indonesia'
p1759
aS'dum'
p1760
aS'duncan/quam, bc'
p1761
aS'duq'
p1762
aS'dundee, united kingdom'
p1763
aS'dnd'
p1764
aS'dunedin, new zealand'
p1765
aS'dud'
p1766
aS'dunhuang, china'
p1767
aS'dnh'
p1768
aS'dunk island, australia'
p1769
aS'dki'
p1770
aS'durango, co'
p1771
aS'dro'
p1772
aS'durango, mexico'
p1773
aS'dgo'
p1774
aS'durban, south africa'
p1775
aS'dur'
p1776
aS'durham, nc'
p1777
aS'rdu'
p1778
aS'durham/raleigh, nc'
p1779
aS'rdu'
p1780
aS'dushanbe, tajikistan'
p1781
aS'dyu'
p1782
aS'dusseldorf, germany - international'
p1783
aS'dus'
p1784
aS'dusseldorf, germany - moenchen-gl.'
p1785
aS'mgl'
p1786
aS'dusseldorf, germany - rail service'
p1787
aS'qdu'
p1788
aS'dutch harbor, ak'
p1789
aS'dut'
p1790
aS'dzaoudzi, mayotte'
p1791
aS'dza'
p1792
aS'east london, south africa'
p1793
aS'els'
p1794
aS'east main, qc'
p1795
aS'zem'
p1796
aS'easton, pa'
p1797
aS'abe'
p1798
aS'eau claire, wi'
p1799
aS'eau'
p1800
aS'ebon, marshall islands'
p1801
aS'ebo'
p1802
aS'eday, united kingdom'
p1803
aS'eoi'
p1804
aS'edinburgh, united kingdom'
p1805
aS'edi'
p1806
aS'edmonton, ab - international'
p1807
aS'yeg'
p1808
aS'edmonton, ab - rail service'
p1809
aS'xzl'
p1810
aS'edna bay, ak'
p1811
aS'eda'
p1812
aS'edremit, turkey'
p1813
aS'edo'
p1814
aS'edward river, australia'
p1815
aS'edr'
p1816
aS'eek, ak'
p1817
aS'eek'
p1818
aS'egilsstadir, iceland'
p1819
aS'egs'
p1820
aS'eindhoven, netherlands'
p1821
aS'ein'
p1822
aS'eisenach, germany'
p1823
aS'eib'
p1824
aS'ekaterinburg, russia'
p1825
aS'svx'
p1826
aS'ekuk, ak'
p1827
aS'kku'
p1828
aS'ekwok, ak'
p1829
aS'kek'
p1830
aS'el bolsan, argentina'
p1831
aS'ehl'
p1832
aS'el centro, ca'
p1833
aS'ipl'
p1834
aS'el dorado, ar'
p1835
aS'eld'
p1836
aS'el fasher, sudan'
p1837
aS'elf'
p1838
aS'el maiten, argentina'
p1839
aS'emx'
p1840
aS'el obeid, sudan'
p1841
aS'ebd'
p1842
aS'el oved, algeria'
p1843
aS'elu'
p1844
aS'el paso, tx'
p1845
aS'elp'
p1846
aS'el portillo/samana, dominician republic - el portillo'
p1847
aS'eps'
p1848
aS'el real, panama'
p1849
aS'ele'
p1850
aS'el salvador, chile'
p1851
aS'esr'
p1852
aS'el vigia, venezuela'
p1853
aS'vig'
p1854
aS'el yopal, colombia'
p1855
aS'eyp'
p1856
aS'elat, italy'
p1857
aS'eth'
p1858
aS'elazig, turkey'
p1859
aS'ezs'
p1860
aS'elba island, italy'
p1861
aS'eba'
p1862
aS'elcho island, australia'
p1863
aS'elc'
p1864
aS'eldoret, kenya'
p1865
aS'edl'
p1866
aS'eleuthera island, bahamas'
p1867
aS'elh'
p1868
aS'elfin cove, ak'
p1869
aS'elv'
p1870
aS'elim, ak'
p1871
aS'eli'
p1872
aS'elista, russia'
p1873
aS'esl'
p1874
aS'elko, nv'
p1875
aS'eko'
p1876
aS'elmira, ny'
p1877
aS'elm'
p1878
aS'ely, mn'
p1879
aS'lyu'
p1880
aS'emae, vanuata'
p1881
aS'eae'
p1882
aS'embessa, papua new guinea'
p1883
aS'ems'
p1884
aS'emerald, australia'
p1885
aS'emd'
p1886
aS'emmonak, ak'
p1887
aS'emk'
p1888
aS'emo, papua new guinea'
p1889
aS'emo'
p1890
aS'enarotali, indonesia'
p1891
aS'ewi'
p1892
aS'ende, indonesia'
p1893
aS'ene'
p1894
aS'endicott, ny'
p1895
aS'bgm'
p1896
aS'enewetak island, marshall islands'
p1897
aS'ent'
p1898
aS'enid, ok'
p1899
aS'wdg'
p1900
aS'enontekio, finland'
p1901
aS'enf'
p1902
aS'enshi, china'
p1903
aS'enh'
p1904
aS'entebbe, uganda'
p1905
aS'ebb'
p1906
aS'enugu, nigeria'
p1907
aS'enu'
p1908
aS'epinal, france'
p1909
aS'epl'
p1910
aS'ercan, cyprus'
p1911
aS'ecn'
p1912
aS'erfurt, germany'
p1913
aS'erf'
p1914
aS'erie, pa'
p1915
aS'eri'
p1916
aS'erzincan, turkey'
p1917
aS'erc'
p1918
aS'erzurum, turkey'
p1919
aS'erz'
p1920
aS'esbjerg, denmark - esbjerg airport'
p1921
aS'ebj'
p1922
aS'esbjerg, denmark - rail service'
p1923
aS'zbb'
p1924
aS'escanaba, mi'
p1925
aS'esc'
p1926
aS'esmeraldas, ecuador'
p1927
aS'esm'
p1928
aS'esperance, australia'
p1929
aS'epr'
p1930
aS'espiritu santo, vanuatu'
p1931
aS'son'
p1932
aS'esquel, argentina'
p1933
aS'eqs'
p1934
aS'esquimalt, bc'
p1935
aS'ypf'
p1936
aS'eugene, or'
p1937
aS'eug'
p1938
aS'eureka, nv'
p1939
aS'eue'
p1940
aS'eureka/arcata, ca'
p1941
aS'acv'
p1942
aS'evansville, in'
p1943
aS'evv'
p1944
aS'eveter, united kingdom'
p1945
aS'ext'
p1946
aS'ewer, indonesia'
p1947
aS'ewe'
p1948
aS'exmouth gulf, australia'
p1949
aS'exm'
p1950
aS'fagernes, norway'
p1951
aS'vdb'
p1952
aS'fair isle, united kingdom'
p1953
aS'fie'
p1954
aS'fairbanks, ak'
p1955
aS'fai'
p1956
aS'faisalabad, pakistan'
p1957
aS'lyp'
p1958
aS'fajard, puerto rico'
p1959
aS'faj'
p1960
aS'fak fak, indonesia'
p1961
aS'fkq'
p1962
aS'fakarava, french polynesia'
p1963
aS'fav'
p1964
aS'farafangana, madagascar'
p1965
aS'rva'
p1966
aS'fargo, nd'
p1967
aS'far'
p1968
aS'farmington, nm'
p1969
aS'fmn'
p1970
aS'faro, portugal'
p1971
aS'fao'
p1972
aS'faroe islands, faroe islands'
p1973
aS'fae'
p1974
aS'fayetteville, ar - municipal/drake'
p1975
aS'fyv'
p1976
aS'fayetteville, ar - northwest arkansas regional'
p1977
aS'xna'
p1978
aS'fayetteville, nc'
p1979
aS'fay'
p1980
aS'fera island, solomon islands'
p1981
aS'fre'
p1982
aS'fergana, uzbekistan'
p1983
aS'feg'
p1984
aS'fernando de noronha, brazil'
p1985
aS'fen'
p1986
aS'fez, morocco'
p1987
aS'fez'
p1988
aS'fianarantsoa, madagascar'
p1989
aS'wfi'
p1990
aS'figari, france'
p1991
aS'fsc'
p1992
aS'filton, united kingdom'
p1993
aS'fzo'
p1994
aS'finkenwerder, germany'
p1995
aS'xfw'
p1996
aS'fitzroy crossing, australia'
p1997
aS'fiz'
p1998
aS'flagstaff, az'
p1999
aS'flg'
p2000
aS'flensburg, germany'
p2001
aS'flf'
p2002
aS'flin flon, mb'
p2003
aS'yfo'
p2004
aS'flint, mi'
p2005
aS'fnt'
p2006
aS'florence, italy - gal galilei'
p2007
aS'psa'
p2008
aS'florence, italy - peretola'
p2009
aS'flr'
p2010
aS'florence, sc'
p2011
aS'flo'
p2012
aS'florence/muscle shoals/sheffield, al'
p2013
aS'msl'
p2014
aS'florencia, colombia'
p2015
aS'fla'
p2016
aS'flores island, portugal'
p2017
aS'flw'
p2018
aS'flores, guatemala'
p2019
aS'frs'
p2020
aS'florianopolis, brazil'
p2021
aS'fln'
p2022
aS'floro, norway'
p2023
aS'fro'
p2024
aS'foggia, italy'
p2025
aS'fog'
p2026
aS'fond du lac, sk'
p2027
aS'zfd'
p2028
aS'forde, norway'
p2029
aS'fde'
p2030
aS'formosa, argentina'
p2031
aS'fma'
p2032
aS'fort albany, on'
p2033
aS'yfa'
p2034
aS'fort chipewyan, ab'
p2035
aS'ypy'
p2036
aS'fort collins/loveland, co - bus service'
p2037
aS'qwf'
p2038
aS'fort collins/loveland, co - municipal airport'
p2039
aS'fnl'
p2040
aS'fort dauphin, madagascar'
p2041
aS'ftu'
p2042
aS'fort de france, martinique'
p2043
aS'fdf'
p2044
aS'fort dodge, ia'
p2045
aS'fod'
p2046
aS'fort frances, on'
p2047
aS'yag'
p2048
aS'fort good hope, nt'
p2049
aS'ygh'
p2050
aS'fort hope, on'
p2051
aS'yfh'
p2052
aS'fort lauderdale, fl'
p2053
aS'fll'
p2054
aS'fort leonard wood, mo'
p2055
aS'tbn'
p2056
aS'fort mcmurray, ab'
p2057
aS'ymm'
p2058
aS'fort myers, fl'
p2059
aS'rsw'
p2060
aS'fort nelson, bc'
p2061
aS'yye'
p2062
aS'fort severn, on'
p2063
aS'yer'
p2064
aS'fort simpson, nt'
p2065
aS'yfs'
p2066
aS'fort smith, ar'
p2067
aS'fsm'
p2068
aS'fort smith, nt'
p2069
aS'ysm'
p2070
aS'fort st john, bc'
p2071
aS'yxj'
p2072
aS'fort walton beach, fl'
p2073
aS'vps'
p2074
aS'fort wayne, in'
p2075
aS'fwa'
p2076
aS'fort worth/dallas, tx'
p2077
aS'dfw'
p2078
aS'fortaleza, brazil'
p2079
aS'for'
p2080
aS'fox harbour/st lewis, nl'
p2081
aS'yfx'
p2082
aS'franca, brazil'
p2083
aS'frc'
p2084
aS'franceville, gabon'
p2085
aS'mvb'
p2086
aS'francistown, botswana'
p2087
aS'frw'
p2088
aS'frankfurt, germany - hahn'
p2089
aS'hhn'
p2090
aS'frankfurt, germany - international'
p2091
aS'fra'
p2092
aS'franklin, pa'
p2093
aS'fkl'
p2094
aS'fredericia, denmark'
p2095
aS'zbj'
p2096
aS'fredericton junction, nb - rail service'
p2097
aS'xfc'
p2098
aS'fredericton, nb'
p2099
aS'yfc'
p2100
aS'freeport, bahamas'
p2101
aS'fpo'
p2102
aS'freetown, sierra leone - lungi intl'
p2103
aS'fna'
p2104
aS'fresno, ca'
p2105
aS'fat'
p2106
aS'friedrichshafer, germany'
p2107
aS'fdh'
p2108
aS'fuerteventura, spain'
p2109
aS'fue'
p2110
aS'fukue, japan'
p2111
aS'fuj'
p2112
aS'fukuoka, japan'
p2113
aS'fuk'
p2114
aS'fukushima, japan'
p2115
aS'fks'
p2116
aS'funafuti atol, tuvalu'
p2117
aS'fun'
p2118
aS'funchal, portugal'
p2119
aS'fnc'
p2120
aS'futuna island, vanuatu'
p2121
aS'fta'
p2122
aS'futuna island, wallis and futuna islands'
p2123
aS'fut'
p2124
aS'fuyang, china'
p2125
aS'fug'
p2126
aS'fuzhou, china'
p2127
aS'foc'
p2128
aS'gaborone, botswana'
p2129
aS'gbe'
p2130
aS'gafsa, tunisia'
p2131
aS'gaf'
p2132
aS"gagnoa, cote d'ivoire"
p2133
aS'ggn'
p2134
aS'gainesville, fl'
p2135
aS'gnv'
p2136
aS'galapagos, ecuador'
p2137
aS'gps'
p2138
aS'gallivare, sweden'
p2139
aS'gev'
p2140
aS'gallup, nm'
p2141
aS'gup'
p2142
aS'galway, ireland'
p2143
aS'gwy'
p2144
aS'gamba, gabon'
p2145
aS'gax'
p2146
aS'gambela, ethiopia'
p2147
aS'gmb'
p2148
aS'gan island, maldives'
p2149
aS'gan'
p2150
aS'gander, nl'
p2151
aS'yqx'
p2152
aS'gangneung, south korea'
p2153
aS'kag'
p2154
aS'garachine, panama'
p2155
aS'ghe'
p2156
aS'garaina, papua new guinea'
p2157
aS'gar'
p2158
aS'garasa, papua new guinea'
p2159
aS'grl'
p2160
aS'garden city, ks'
p2161
aS'gck'
p2162
aS'garden point, australia'
p2163
aS'gpn'
p2164
aS'garoua, cameroon'
p2165
aS'gov'
p2166
aS'gary, in'
p2167
aS'gyy'
p2168
aS'gaspe, qc'
p2169
aS'ygp'
p2170
aS'gaspe, qc - rail service'
p2171
aS'xdd'
p2172
aS'gassim, saudi arabia'
p2173
aS'elq'
p2174
aS'gaua, vanuatu'
p2175
aS'zgu'
p2176
aS'gawahati, india'
p2177
aS'gau'
p2178
aS'gaza city, occupied palestinian territory'
p2179
aS'gza'
p2180
aS'gaziatep, turkey'
p2181
aS'gzt'
p2182
aS'gdansk, poland'
p2183
aS'gdn'
p2184
aS'gebe, indonesia'
p2185
aS'geb'
p2186
aS'gelendzik, russia'
p2187
aS'gdz'
p2188
aS'geneina, sudan'
p2189
aS'egn'
p2190
aS'general santos, philippines'
p2191
aS'ges'
p2192
aS'geneva, switzerland'
p2193
aS'gva'
p2194
aS'genoa, italy'
p2195
aS'goa'
p2196
aS'george town, bahamas'
p2197
aS'ggt'
p2198
aS'george, south africa'
p2199
aS'grj'
p2200
aS'georgetown, guyana'
p2201
aS'geo'
p2202
aS'georgetown, on - rail service'
p2203
aS'xhm'
p2204
aS'geraldton, australia,'
p2205
aS'get'
p2206
aS'gerona, spain'
p2207
aS'gro'
p2208
aS'gethsemani, qc'
p2209
aS'zgs'
p2210
aS'ghadames, libya'
p2211
aS'ltd'
p2212
aS'ghardala, algeria'
p2213
aS'gha'
p2214
aS'ghat, libya'
p2215
aS'ght'
p2216
aS'gibraltar, gibraltar'
p2217
aS'gib'
p2218
aS'gilgit, pakistan'
p2219
aS'gil'
p2220
aS'gillam, mb'
p2221
aS'ygx'
p2222
aS'gillette, wy'
p2223
aS'gcc'
p2224
aS'gillies bay, bc'
p2225
aS'ygb'
p2226
aS'gisborne, new zealand'
p2227
aS'gis'
p2228
aS'gizan, saudi arabia'
p2229
aS'giz'
p2230
aS'gizo, solomon islands'
p2231
aS'gzo'
p2232
aS'gjoa haven, nu'
p2233
aS'yhk'
p2234
aS'gladewater/kilgore, tx'
p2235
aS'ggg'
p2236
aS'gladstone, australia'
p2237
aS'glt'
p2238
aS'glasgow, mt'
p2239
aS'ggw'
p2240
aS'glasgow, united kingdom - glasgow international'
p2241
aS'gla'
p2242
aS'glasgow, united kingdom - prestwick'
p2243
aS'pik'
p2244
aS'glen innes, australia'
p2245
aS'gli'
p2246
aS'glencoe, on - rail service'
p2247
aS'xzc'
p2248
aS'glendive, mt'
p2249
aS'gdv'
p2250
aS'goa, india'
p2251
aS'goi'
p2252
aS'goba, ethiopia'
p2253
aS'gob'
p2254
aS'gobernador gregores, argentina'
p2255
aS'ggs'
p2256
aS'gode/iddidole, ethopia'
p2257
aS'gde'
p2258
aS'gods narrows, mb'
p2259
aS'ygo'
p2260
aS'gods river, mb'
p2261
aS'zgi'
p2262
aS'goiania, brazil'
p2263
aS'gyn'
p2264
aS'gold coast, ql, australia'
p2265
aS'ool'
p2266
aS'golfito, costa rica'
p2267
aS'glf'
p2268
aS'golmud, china'
p2269
aS'goq'
p2270
aS'golovin, ak'
p2271
aS'glv'
p2272
aS'gonalia, papua new guinea'
p2273
aS'goe'
p2274
aS'gondari, ethiopia'
p2275
aS'gdq'
p2276
aS'goodnews bay, ak'
p2277
aS'gnu'
p2278
aS'goose bay, nl'
p2279
aS'yyr'
p2280
aS'gore, ethiopia'
p2281
aS'gor'
p2282
aS'goroka, papua new guinea'
p2283
aS'gka'
p2284
aS'gorontalo, indonesia'
p2285
aS'gto'
p2286
aS'gothenburg, sweden - landvetter'
p2287
aS'got'
p2288
aS'gothenburg, sweden - saeve'
p2289
aS'gse'
p2290
aS'goulburn island, australia'
p2291
aS'gbl'
p2292
aS'goundam, mali'
p2293
aS'gud'
p2294
aS'gove, australia'
p2295
aS'gov'
p2296
aS'governador valadares, brazil'
p2297
aS'gvr'
p2298
aS'governors harbour, bahamas'
p2299
aS'ghb'
p2300
aS'goya, cr, argentina'
p2301
aS'oya'
p2302
aS'gozo, malta'
p2303
aS'gzm'
p2304
aS'graciosa island, portugal'
p2305
aS'grw'
p2306
aS'grafton, australia'
p2307
aS'gfn'
p2308
aS'granada, spain'
p2309
aS'grx'
p2310
aS'grand canyon, az - heliport'
p2311
aS'jgc'
p2312
aS'grand canyon, az - national park'
p2313
aS'gcn'
p2314
aS'grand cayman, cayman islands'
p2315
aS'gcm'
p2316
aS'grand forks, nd'
p2317
aS'gfk'
p2318
aS'grand island, ne'
p2319
aS'gri'
p2320
aS'grand junction, co'
p2321
aS'gjt'
p2322
aS'grand rapids, mi'
p2323
aS'grr'
p2324
aS'grand rapids, mn'
p2325
aS'gpz'
p2326
aS'grand turk island, turks and caicos islands'
p2327
aS'gdt'
p2328
aS'grande prairie, ab'
p2329
aS'yqu'
p2330
aS'grayling, ak'
p2331
aS'kgx'
p2332
aS'graz, austria'
p2333
aS'grz'
p2334
aS'great falls, mt'
p2335
aS'gtf'
p2336
aS'green bay, wi'
p2337
aS'grb'
p2338
aS'greensboro, nc'
p2339
aS'gso'
p2340
aS'greenville, ms'
p2341
aS'glh'
p2342
aS'greenville, nc'
p2343
aS'pgv'
p2344
aS'greenville/spartanburg, sc'
p2345
aS'gsp'
p2346
aS'grenada, grenada,'
p2347
aS'gnd'
p2348
aS'grenoble, france'
p2349
aS'gnb'
p2350
aS'griffith, australia'
p2351
aS'gff'
p2352
aS'grimsby, on'
p2353
aS'xgy'
p2354
aS'grimsey, iceland'
p2355
aS'gry'
p2356
aS'grise fiord, nu'
p2357
aS'ygz'
p2358
aS'groennedal, greenland'
p2359
aS'jgr'
p2360
aS'groningen, netherlands'
p2361
aS'grq'
p2362
aS'groofe eylandt, australia'
p2363
aS'gte'
p2364
aS'groton/new london, ct'
p2365
aS'gon'
p2366
aS'guadalajara, mexico'
p2367
aS'gdl'
p2368
aS'guam'
p2369
aS'gum'
p2370
aS'guanaja, honduras'
p2371
aS'gja'
p2372
aS'guanajuato, mexico'
p2373
aS'bjx'
p2374
aS'guangzhou, china'
p2375
aS'can'
p2376
aS'guantanamo, cuba'
p2377
aS'gao'
p2378
aS'guatemala city, guatemala'
p2379
aS'gua'
p2380
aS'guayaquil, ecuador'
p2381
aS'gye'
p2382
aS'guayaramerin, bolivia'
p2383
aS'gya'
p2384
aS'guaymas, mexico'
p2385
aS'gym'
p2386
aS'guelph, on - rail service'
p2387
aS'xia'
p2388
aS'guernsey, united kingdom'
p2389
aS'gci'
p2390
aS'guerrero negro, mexico'
p2391
aS'gub'
p2392
aS'guilin, china'
p2393
aS'kwl'
p2394
aS'guiria, venezuela'
p2395
aS'gui'
p2396
aS'gulfport, ms'
p2397
aS'gpt'
p2398
aS'gulu, uganda'
p2399
aS'ulu'
p2400
aS'gulyang, china'
p2401
aS'kwe'
p2402
aS'gunnison, co'
p2403
aS'guc'
p2404
aS'gunsan, south korea'
p2405
aS'kuv'
p2406
aS'gurayat, saudi arabia'
p2407
aS'ury'
p2408
aS'gustavus, ak'
p2409
aS'gst'
p2410
aS'gwadar, pakistan'
p2411
aS'gwd'
p2412
aS'gwalior, india'
p2413
aS'gwl'
p2414
aS'gwangju, south korea'
p2415
aS'kwj'
p2416
aS'gyandzha, azerbaijan'
p2417
aS'kvd'
p2418
aS'gyourmri, armenia'
p2419
aS'lwn'
p2420
aS'haapa, tonga'
p2421
aS'hpa'
p2422
aS'hachijo jima, japan'
p2423
aS'hac'
p2424
aS'hagerstown, md'
p2425
aS'hgr'
p2426
aS'hagfors, sweden'
p2427
aS'hfs'
p2428
aS'haifa, israel'
p2429
aS'hfa'
p2430
aS'haikou, china'
p2431
aS'hak'
p2432
aS'hail, saudi arabia'
p2433
aS'has'
p2434
aS'hailar, china'
p2435
aS'hld'
p2436
aS'hailey, id'
p2437
aS'sun'
p2438
aS'haines, ak'
p2439
aS'hns'
p2440
aS'haiphong, viet nam - catbi'
p2441
aS'hph'
p2442
aS'hakodate, japan'
p2443
aS'hkd'
p2444
aS'halberstadt, germany'
p2445
aS'zhq'
p2446
aS'halifax, ns - international'
p2447
aS'yhz'
p2448
aS'halifax, ns - rail service'
p2449
aS'xdg'
p2450
aS'hall beach, nu'
p2451
aS'yux'
p2452
aS'halls creek, australia'
p2453
aS'hcq'
p2454
aS'halmstad, sweden'
p2455
aS'had'
p2456
aS'hamburg, germany - fuhisbuettel'
p2457
aS'ham'
p2458
aS'hamburg, germany - luebeck'
p2459
aS'lbc'
p2460
aS'hamilton island, australia'
p2461
aS'hti'
p2462
aS'hamilton, bermuda'
p2463
aS'bda'
p2464
aS'hamilton, new zealand'
p2465
aS'hlz'
p2466
aS'hamilton, on'
p2467
aS'yhm'
p2468
aS'hammerfest, norway'
p2469
aS'hft'
p2470
aS'hampton, va'
p2471
aS'phf'
p2472
aS'hana, hi - island of maui'
p2473
aS'hnm'
p2474
aS'hanapepe, hi'
p2475
aS'pak'
p2476
aS'hancock, mi'
p2477
aS'cmx'
p2478
aS'hangzhou, china'
p2479
aS'hgh'
p2480
aS'hanimaadhoo, maldives'
p2481
aS'haq'
p2482
aS'hanoi, viet nam - noibai'
p2483
aS'han'
p2484
aS'hanover, germany'
p2485
aS'haj'
p2486
aS'hanover, nh'
p2487
aS'leb'
p2488
aS'hanzhang, china'
p2489
aS'hzg'
p2490
aS'harare, zimbabwe'
p2491
aS'hre'
p2492
aS'harbin, china'
p2493
aS'hrb'
p2494
aS'hargeisa, somolia'
p2495
aS'hga'
p2496
aS'harlingen, tx'
p2497
aS'hrl'
p2498
aS'harrisburg, pa'
p2499
aS'mdt'
p2500
aS'harrison, ar'
p2501
aS'hro'
p2502
aS'harstad-narvik, norway'
p2503
aS'eve'
p2504
aS'hartford, ct'
p2505
aS'bdl'
p2506
aS'hassi messaoud, algeria'
p2507
aS'hme'
p2508
aS'hasvik, norway'
p2509
aS'haa'
p2510
aS'hat yai, thailand'
p2511
aS'hdy'
p2512
aS'hateruma, japan'
p2513
aS'htr'
p2514
aS'haugesund, norway'
p2515
aS'hau'
p2516
aS'havana, cuba'
p2517
aS'hav'
p2518
aS'havasupai, az'
p2519
aS'hae'
p2520
aS'havre st pierre, qc'
p2521
aS'ygv'
p2522
aS'havre, mt'
p2523
aS'hvr'
p2524
aS'hay river, nt'
p2525
aS'yhy'
p2526
aS'hayden, co'
p2527
aS'hdn'
p2528
aS'hayman island, australia'
p2529
aS'his'
p2530
aS'hays, ks'
p2531
aS'hys'
p2532
aS'healy lake, ak'
p2533
aS'hkb'
p2534
aS'hefei, china'
p2535
aS'hfe'
p2536
aS'heidelberg, germany'
p2537
aS'hdb'
p2538
aS'helena, mt'
p2539
aS'hln'
p2540
aS'helgoland, germany'
p2541
aS'hgl'
p2542
aS'helsinki, finland'
p2543
aS'hel'
p2544
aS'hendersonville, nc'
p2545
aS'avl'
p2546
aS'heno, myanmar'
p2547
aS'heh'
p2548
aS'heraklian, greece'
p2549
aS'her'
p2550
aS'heringsdorf, germany'
p2551
aS'hdf'
p2552
aS'hermavan, sweden'
p2553
aS'hmv'
p2554
aS'hermosillo, mexico'
p2555
aS'hmo'
p2556
aS'herning, denmark'
p2557
aS'xak'
p2558
aS'hervey bay, australia'
p2559
aS'hvb'
p2560
aS'hervey, qc - rail service'
p2561
aS'xdu'
p2562
aS'hibbing/chisholm, mn'
p2563
aS'hib'
p2564
aS'hickory, nc'
p2565
aS'hky'
p2566
aS'high level, ab'
p2567
aS'yoj'
p2568
aS'high point, nc'
p2569
aS'gso'
p2570
aS'hilo, hi - island of hawaii'
p2571
aS'ito'
p2572
aS'hilton head, sc'
p2573
aS'hhh'
p2574
aS'hiroshima, japan - hiroshima west'
p2575
aS'hiw'
p2576
aS'hiroshima, japan - international'
p2577
aS'hij'
p2578
aS'hivaro, papua new guinea'
p2579
aS'hit'
p2580
aS'ho chi minh city, viet nam'
p2581
aS'sgn'
p2582
aS'hobart, australia'
p2583
aS'hba'
p2584
aS'hobbs, nm'
p2585
aS'hbb'
p2586
aS'hodeidah, yemen'
p2587
aS'hod'
p2588
aS'hoedspruit, south africa'
p2589
aS'hds'
p2590
aS'hof, germany'
p2591
aS'hoq'
p2592
aS'hofuf, saudi arabia'
p2593
aS'hof'
p2594
aS'hohhot, china'
p2595
aS'het'
p2596
aS'hokitika, new zealand'
p2597
aS'hkk'
p2598
aS'holguin, cuba'
p2599
aS'hog'
p2600
aS'hollis, ak'
p2601
aS'hyl'
p2602
aS'holman, nt'
p2603
aS'yhi'
p2604
aS'holy cross, ak'
p2605
aS'hcr'
p2606
aS'homer, ak'
p2607
aS'hom'
p2608
aS'hong kong, hong kong'
p2609
aS'hkg'
p2610
aS'honiara, solomon islands'
p2611
aS'hir'
p2612
aS'honningsvag, norway'
p2613
aS'hvg'
p2614
aS'honolulu, hi - island of oahu'
p2615
aS'hnl'
p2616
aS'hooker, australia'
p2617
aS'hok'
p2618
aS'hoolehua, hi - island of molokai'
p2619
aS'mkk'
p2620
aS'hoonah, ak'
p2621
aS'hnh'
p2622
aS'hooper bay, ak'
p2623
aS'hpb'
p2624
aS'hopedale, nl'
p2625
aS'yho'
p2626
aS'horn island australia'
p2627
aS'hid'
p2628
aS'hornafjordur, iceland'
p2629
aS'hfn'
p2630
aS'horta, portugal'
p2631
aS'hor'
p2632
aS'hoskins, papua new guinea'
p2633
aS'hkn'
p2634
aS'hot springs, ar'
p2635
aS'hot'
p2636
aS'hotan, china'
p2637
aS'htn'
p2638
aS'houeisay, laos'
p2639
aS'hoe'
p2640
aS'houn, libya'
p2641
aS'huq'
p2642
aS'houston, bc - bus station'
p2643
aS'zho'
p2644
aS'houston, tx - all airports'
p2645
aS'hou'
p2646
aS'houston, tx - hobby'
p2647
aS'hou'
p2648
aS'houston, tx - intercontinental'
p2649
aS'iah'
p2650
aS'huahine, french polynesia'
p2651
aS'huh'
p2652
aS'hualien, taiwan - phi bai'
p2653
aS'hun'
p2654
aS'hualtin, thailand'
p2655
aS'hhq'
p2656
aS'huanuco, french polynesia'
p2657
aS'huu'
p2658
aS'huargyan, china'
p2659
aS'hyn'
p2660
aS'huatulco, mexico'
p2661
aS'hux'
p2662
aS'hudiksvall, sweden'
p2663
aS'huv'
p2664
aS'hudson bay, sk'
p2665
aS'yhb'
p2666
aS'hue, viet nam'
p2667
aS'hui'
p2668
aS'hughenden, australia'
p2669
aS'hgd'
p2670
aS'hughes, ak'
p2671
aS'hus'
p2672
aS'hultsfred, sweden'
p2673
aS'hlf'
p2674
aS'humberside, united kingdom'
p2675
aS'huy'
p2676
aS'huntington, wv/ashland, ky'
p2677
aS'hts'
p2678
aS'huntsville, al'
p2679
aS'hsv'
p2680
aS'hurghada, egypt'
p2681
aS'hrg'
p2682
aS'huron, sd'
p2683
aS'hon'
p2684
aS'huslia, ak'
p2685
aS'hsl'
p2686
aS'hwange nat park, zimbabwe'
p2687
aS'hwn'
p2688
aS'hyannis, ma'
p2689
aS'hya'
p2690
aS'hydaburg, ak'
p2691
aS'hyg'
p2692
aS'hyderabad, india'
p2693
aS'hyd'
p2694
aS'iasi, romania'
p2695
aS'ias'
p2696
aS'ibague, colombia'
p2697
aS'ibe'
p2698
aS'ibiza, spain'
p2699
aS'ibz'
p2700
aS'idaho falls, id'
p2701
aS'ida'
p2702
aS'igarka, russia'
p2703
aS'iaa'
p2704
aS'igiugig, ak'
p2705
aS'igg'
p2706
aS'igloolik, nu'
p2707
aS'ygt'
p2708
aS'iguassu falls, pr, brazil'
p2709
aS'igu'
p2710
aS'iguazu, argentina'
p2711
aS'igr'
p2712
aS'ihu, papua new guinea'
p2713
aS'ihu'
p2714
aS'ile des pins, new caledonia'
p2715
aS'ilp'
p2716
aS'iles de la madeleine, qc'
p2717
aS'ygr'
p2718
aS'ilford, mb'
p2719
aS'ilf'
p2720
aS'ilheus, brazil'
p2721
aS'ios'
p2722
aS'iliamna, ak'
p2723
aS'ili'
p2724
aS'illaga, indonesia'
p2725
aS'ila'
p2726
aS'iloilo, philippines - mandurriao'
p2727
aS'ilo'
p2728
aS'ilu, indonesia'
p2729
aS'iul'
p2730
aS'ilulissat, greenland'
p2731
aS'jav'
p2732
aS'imperatriz, brazil'
p2733
aS'imp'
p2734
aS'imperial, ca'
p2735
aS'ipl'
p2736
aS'imphal, india'
p2737
aS'imf'
p2738
aS'in amenas, algeria'
p2739
aS'iam'
p2740
aS'inagua, bahamas'
p2741
aS'iga'
p2742
aS'inanwatan, indonesia'
p2743
aS'inx'
p2744
aS'indagen, papua new guinea'
p2745
aS'idn'
p2746
aS'indianapolis, in'
p2747
aS'ind'
p2748
aS'indore, india'
p2749
aS'idr'
p2750
aS'ingersoll, on - rail service'
p2751
aS'xib'
p2752
aS'innsbruck, austria'
p2753
aS'inn'
p2754
aS'inta, russia'
p2755
aS'ina'
p2756
aS'international falls, mn'
p2757
aS'inl'
p2758
aS'inukjuak, qc'
p2759
aS'yph'
p2760
aS'inuvik, nt'
p2761
aS'yev'
p2762
aS'invercargill, new zealand'
p2763
aS'ivc'
p2764
aS'inverell, australia'
p2765
aS'ivr'
p2766
aS'inverness, united kingdom'
p2767
aS'inv'
p2768
aS'inyokern, ca'
p2769
aS'iyk'
p2770
aS'ioannina, greece'
p2771
aS'ioa'
p2772
aS'ioma, papua new guinea'
p2773
aS'iop'
p2774
aS'ipatinga, brazil'
p2775
aS'ipn'
p2776
aS'ipiales, colombia'
p2777
aS'ipi'
p2778
aS'ipil, philippines'
p2779
aS'ipe'
p2780
aS'ipoh, malaysia'
p2781
aS'iph'
p2782
aS'ipota, vanuatu'
p2783
aS'ipa'
p2784
aS'iqaluit, nu'
p2785
aS'yfb'
p2786
aS'iquique, chile'
p2787
aS'iqq'
p2788
aS'iquitos, peru'
p2789
aS'iqt'
p2790
aS'irkutsk, russia'
p2791
aS'ikt'
p2792
aS'iron mountain, mi'
p2793
aS'imt'
p2794
aS'ironwood, mi'
p2795
aS'iwd'
p2796
aS'isafjordur, iceland'
p2797
aS'ifj'
p2798
aS'isfahan, iran'
p2799
aS'ifn'
p2800
aS'ishigakij, japan'
p2801
aS'isg'
p2802
aS'islamabad, pakistan'
p2803
aS'isb'
p2804
aS'island lake/garden hill'
p2805
aS'yiv'
p2806
aS'island lake/garden hill, canada'
p2807
aS'yiv'
p2808
aS'islay, united kingdom'
p2809
aS'ily'
p2810
aS'isle of man, united kingdom'
p2811
aS'iom'
p2812
aS'isles of scilly, united kingdom - st marys'
p2813
aS'isc'
p2814
aS'isles of scilly, united kingdom - tresco'
p2815
aS'tso'
p2816
aS'islip, ny'
p2817
aS'isp'
p2818
aS'istanbul, turkey'
p2819
aS'ist'
p2820
aS'itaituba, brazil'
p2821
aS'itb'
p2822
aS'ithaca, ny'
p2823
aS'ith'
p2824
aS'itokama, papua new guinea'
p2825
aS'itk'
p2826
aS'ivalo, finland'
p2827
aS'ivl'
p2828
aS'ivano-frankovsk, ukraine'
p2829
aS'ifo'
p2830
aS'ivujivik, qc'
p2831
aS'yik'
p2832
aS'iwami, japan'
p2833
aS'iwj'
p2834
aS'ixtapa, mexico'
p2835
aS'zih'
p2836
aS'ixtepec, mexico'
p2837
aS'izt'
p2838
aS'izmir, turkey'
p2839
aS'adb'
p2840
aS'izumo, japan'
p2841
aS'izo'
p2842
aS'jabor, marshall islands'
p2843
aS'jat'
p2844
aS'jacareacanga, brazil'
p2845
aS'jcr'
p2846
aS'jackson hole, wy'
p2847
aS'jac'
p2848
aS'jackson, ms'
p2849
aS'jan'
p2850
aS'jackson, tn'
p2851
aS'mkl'
p2852
aS'jacksonville, fl'
p2853
aS'jax'
p2854
aS'jacksonville, nc'
p2855
aS'oaj'
p2856
aS'jacobabad, pakistan'
p2857
aS'jag'
p2858
aS'jacquinot bay, papua new guinea'
p2859
aS'jaq'
p2860
aS'jaipur, india'
p2861
aS'jai'
p2862
aS'jakarta, indonesia'
p2863
aS'cgk'
p2864
aS'jalapa, mexico'
p2865
aS'jal'
p2866
aS'jaluit island, marshall islands'
p2867
aS'uit'
p2868
aS'jambi. indonesia'
p2869
aS'djb'
p2870
aS'jamestown, nd'
p2871
aS'jms'
p2872
aS'jamestown, ny'
p2873
aS'jhw'
p2874
aS'jamnagar, india'
p2875
aS'jga'
p2876
aS'janakpur, nepal'
p2877
aS'jkr'
p2878
aS'janesville, wi'
p2879
aS'jvl'
p2880
aS'jaque, panama'
p2881
aS'jqe'
p2882
aS'jasper, ab - rail service'
p2883
aS'xdh'
p2884
aS'jayapura, indonesia'
p2885
aS'djj'
p2886
aS'jeddah, saudi arabia'
p2887
aS'jed'
p2888
aS'jeh, marshall islands'
p2889
aS'jej'
p2890
aS'jeju, south korea - jeju airport, metro area'
p2891
aS'cju'
p2892
aS'jerez de la frontere, spain'
p2893
aS'xry'
p2894
aS'jersey, united kingdom'
p2895
aS'jer'
p2896
aS'jessore, bangladesh'
p2897
aS'jsr'
p2898
aS'jiamusi, china'
p2899
aS'jmu'
p2900
aS'jiayuguan, china'
p2901
aS'jgn'
p2902
aS'jijel, algeria'
p2903
aS'gjl'
p2904
aS'jijiga, ethiopia'
p2905
aS'jij'
p2906
aS'jimma, ethiopia'
p2907
aS'jim'
p2908
aS'jinan, china'
p2909
aS'tna'
p2910
aS'jingdezhen, china'
p2911
aS'jdz'
p2912
aS'jinghong, china'
p2913
aS'jhg'
p2914
aS'jinja, uganda'
p2915
aS'jin'
p2916
aS'jinjiang, china'
p2917
aS'jjn'
p2918
aS'jinju, south korea - sancheon'
p2919
aS'hin'
p2920
aS'jinka, ethiopia'
p2921
aS'bco'
p2922
aS'jinzhou, china'
p2923
aS'jnz'
p2924
aS'ji-parana, brazil'
p2925
aS'jpr'
p2926
aS'jiwani, pakistan'
p2927
aS'jiw'
p2928
aS'joao pessoa, brazil'
p2929
aS'jpa'
p2930
aS'jodhpur, india'
p2931
aS'jdh'
p2932
aS'joensuu, finland'
p2933
aS'joe'
p2934
aS'johannesburg, south africa'
p2935
aS'jnb'
p2936
aS'johnson city, ny'
p2937
aS'bgm'
p2938
aS'johnson city, tn'
p2939
aS'tri'
p2940
aS'johnston island, us minor outlying islands'
p2941
aS'jon'
p2942
aS'johnstown, pa'
p2943
aS'jst'
p2944
aS'johor, malaysia'
p2945
aS'jhb'
p2946
aS'joinville, brazil'
p2947
aS'joi'
p2948
aS'joliette, qc - rail service'
p2949
aS'xjl'
p2950
aS'jommu, india'
p2951
aS'ixj'
p2952
aS'jomsom, nepal'
p2953
aS'jmo'
p2954
aS'jonesboro, ar'
p2955
aS'jbr'
p2956
aS'jonkoping, sweden'
p2957
aS'jkg'
p2958
aS'jonquiere, qc - rail service'
p2959
aS'xjq'
p2960
aS'joplin, mo'
p2961
aS'jln'
p2962
aS'jorhat, india'
p2963
aS'jrh'
p2964
aS'jose de san martin, argentina'
p2965
aS'jsm'
p2966
aS'jouf, saudi arabia'
p2967
aS'ajf'
p2968
aS'juazeiro do norte, brazil'
p2969
aS'jdo'
p2970
aS'juist, germany'
p2971
aS'jui'
p2972
aS'juiz de fora, brazil'
p2973
aS'jdf'
p2974
aS'jujuy, argentina'
p2975
aS'juj'
p2976
aS'julia creek, australia'
p2977
aS'jck'
p2978
aS'juliaca, peru'
p2979
aS'jul'
p2980
aS'juneau, ak'
p2981
aS'jnu'
p2982
aS'juzha, china'
p2983
aS'juz'
p2984
aS'jyvaskyla, finland'
p2985
aS'jyv'
p2986
aS'kaadedhdhoo, maldives'
p2987
aS'kdm'
p2988
aS'kaben, marshall islands'
p2989
aS'kbt'
p2990
aS'kabri dar, ethiopia'
p2991
aS'abk'
p2992
aS'kabul, afghanistan'
p2993
aS'kbl'
p2994
aS'kabwun, papua new guinea'
p2995
aS'kbm'
p2996
aS'kadanwari, pakistan'
p2997
aS'kcf'
p2998
aS'kadhonoo, maldives'
p2999
aS'kdo'
p3000
aS'kahramanmaras, turkey'
p3001
aS'kcm'
p3002
aS'kahului, hi - island of maui,'
p3003
aS'ogg'
p3004
aS'kaintiba, papua new guinea'
p3005
aS'kzf'
p3006
aS'kaitaia, new zealand'
p3007
aS'kat'
p3008
aS'kajaani, finland'
p3009
aS'kaj'
p3010
aS'kake, ak'
p3011
aS'kae'
p3012
aS'kakhonak, ak'
p3013
aS'knk'
p3014
aS'kalamazoo, mi'
p3015
aS'azo'
p3016
aS'kalaupapa, hi - island of molokai,'
p3017
aS'lup'
p3018
aS'kalbarri, australia'
p3019
aS'kax'
p3020
aS'kaliningrad, russia'
p3021
aS'kgd'
p3022
aS'kalskag, ak'
p3023
aS'klg'
p3024
aS'kaltag, ak'
p3025
aS'kal'
p3026
aS'kambuaya, indonesia'
p3027
aS'kbx'
p3028
aS'kameshli, syrian arab republic'
p3029
aS'kac'
p3030
aS'kamloops, bc'
p3031
aS'yka'
p3032
aS'kamuela, hi - island of hawaii,'
p3033
aS'mue'
p3034
aS'kamur, indonesia'
p3035
aS'kcd'
p3036
aS'kamusi, papua new guinea'
p3037
aS'kuy'
p3038
aS'kangiqsualujjuaq, qc'
p3039
aS'xgr'
p3040
aS'kangiqsujuaq, qc'
p3041
aS'ywb'
p3042
aS'kangirsuk, qc'
p3043
aS'ykg'
p3044
aS'kano, nigeria'
p3045
aS'kan'
p3046
aS'kansas city, mo'
p3047
aS'mci'
p3048
aS'kapalua, hi - island of maui,'
p3049
aS'jhm'
p3050
aS'kapuskasing, on'
p3051
aS'yyu'
p3052
aS'karachi, pakistan - quaid-e-azam international'
p3053
aS'khi'
p3054
aS'kardia, estonia'
p3055
aS'kdl'
p3056
aS'kariba, zimbabwe'
p3057
aS'kab'
p3058
aS'karlsruhe/badern baden, germany'
p3059
aS'fkb'
p3060
aS'karpathos, greece'
p3061
aS'aok'
p3062
aS'karubaga, indonesia'
p3063
aS'kbf'
p3064
aS'kasaan, ak'
p3065
aS'kxa'
p3066
aS'kasaba bay, zambia'
p3067
aS'zkb'
p3068
aS'kasabonika, on'
p3069
aS'xks'
p3070
aS'kasama, zambia'
p3071
aS'kaa'
p3072
aS'kasane, botswana'
p3073
aS'bbk'
p3074
aS'kaschechewan, on'
p3075
aS'zke'
p3076
aS'kasigluk, ak'
p3077
aS'kuk'
p3078
aS'katherine, nt, australia'
p3079
aS'ktr'
p3080
aS'kathmandu, nepal'
p3081
aS'ktm'
p3082
aS'katowice, poland'
p3083
aS'ktw'
p3084
aS'kauai island/lihue, hi'
p3085
aS'lih'
p3086
aS'kaunas, lithuania'
p3087
aS'kun'
p3088
aS'kavala, greece'
p3089
aS'kva'
p3090
aS'kavieng, papua new guinea'
p3091
aS'kvg'
p3092
aS'kawthaung, myanmar'
p3093
aS'kaw'
p3094
aS'kayseri, turkey'
p3095
aS'asr'
p3096
aS'kazan,, russia'
p3097
aS'kzn'
p3098
aS'kearney, ne'
p3099
aS'ear'
p3100
aS'keene, nh'
p3101
aS'een'
p3102
aS'keewaywin, on'
p3103
aS'kew'
p3104
aS'kefallinia, greece'
p3105
aS'efl'
p3106
aS'kegaska, qc'
p3107
aS'zkg'
p3108
aS'kelowna, bc'
p3109
aS'ylw'
p3110
aS'kenai, ak'
p3111
aS'ena'
p3112
aS'kendari, indonesia'
p3113
aS'kdi'
p3114
aS'kenora, on'
p3115
aS'yqk'
p3116
aS'kerkyra, greece'
p3117
aS'cfu'
p3118
aS'ketchikan, ak'
p3119
aS'ktn'
p3120
aS'key west, fl'
p3121
aS'eyw'
p3122
aS'keystone, co - van service'
p3123
aS'qks'
p3124
aS'khajuraho, india'
p3125
aS'hjr'
p3126
aS'kharga, egypt'
p3127
aS'uvl'
p3128
aS'kharkov, ukraine'
p3129
aS'hrk'
p3130
aS'khudzhand, tajikistan'
p3131
aS'lbd'
p3132
aS'khuzdar, pakistan'
p3133
aS'kdd'
p3134
aS'kiana, ak'
p3135
aS'ian'
p3136
aS'kiev, ukraine - borispol'
p3137
aS'kbp'
p3138
aS'kiev, ukraine - zhulhany'
p3139
aS'iev'
p3140
aS'kigali, rwanda'
p3141
aS'kgl'
p3142
aS'kigoma, tanzania'
p3143
aS'tkq'
p3144
aS'kilgore/gladewater, tx'
p3145
aS'ggg'
p3146
aS'kilimanjaro, tanzania'
p3147
aS'jro'
p3148
aS'killeen, tx'
p3149
aS'ile'
p3150
aS'kimmirut/lake harbour nu'
p3151
aS'ylc'
p3152
aS'kimmirut/lake harbour, canada'
p3153
aS'ylc'
p3154
aS'king cove, ak'
p3155
aS'kvc'
p3156
aS'king salmon, ak'
p3157
aS'akn'
p3158
aS'kingfisher lake, on'
p3159
aS'kif'
p3160
aS'kingman, az'
p3161
aS'igm'
p3162
aS'kingsport, tn'
p3163
aS'tri'
p3164
aS'kingston, jamaica - norman manley'
p3165
aS'kin'
p3166
aS'kingston, jamaica - tinson'
p3167
aS'ktp'
p3168
aS'kingston, on - norman rogers airport'
p3169
aS'ygk'
p3170
aS'kingston, on - rail service'
p3171
aS'xeg'
p3172
aS'kinshasa, congo'
p3173
aS'fih'
p3174
aS'kipnuk, ak'
p3175
aS'kpn'
p3176
aS'kirakira, solomon islands'
p3177
aS'ira'
p3178
aS'kirksville, mo'
p3179
aS'irk'
p3180
aS'kitadaito, japan'
p3181
aS'ktd'
p3182
aS'kitchener, on'
p3183
aS'ykf'
p3184
aS'kittila, finland'
p3185
aS'ktt'
p3186
aS'kiunga, papua new guinea'
p3187
aS'ung'
p3188
aS'kivalina, ak'
p3189
aS'kvl'
p3190
aS'kiwayu, kenya'
p3191
aS'kwy'
p3192
aS'klamath falls, or'
p3193
aS'lmt'
p3194
aS'klawock, ak'
p3195
aS'klw'
p3196
aS'klemtu, bc'
p3197
aS'ykt'
p3198
aS'knock, ireland'
p3199
aS'noc'
p3200
aS'knoxville, tn'
p3201
aS'tys'
p3202
aS'kobuk, ak'
p3203
aS'obu'
p3204
aS'kochi, japan'
p3205
aS'kcz'
p3206
aS'kodiak, ak'
p3207
aS'adq'
p3208
aS'koh samui, thailand'
p3209
aS'usm'
p3210
aS'kolkata, india'
p3211
aS'ccu'
p3212
aS'kolobrzeg, poland'
p3213
aS'qjy'
p3214
aS'komsomolsk na amure, russia'
p3215
aS'kxk'
p3216
aS'kona, hi - island of hawaii'
p3217
aS'koa'
p3218
aS'kongiganak, ak'
p3219
aS'kkh'
p3220
aS'konya, turkey'
p3221
aS'kya'
p3222
aS'koror, palau'
p3223
aS'ror'
p3224
aS'koszalin, poland'
p3225
aS'osz'
p3226
aS'kota bharu, malaysia'
p3227
aS'kbr'
p3228
aS'kota kinabalu, malaysia'
p3229
aS'bki'
p3230
aS'kotlik, ak'
p3231
aS'kot'
p3232
aS'kotzebue, ak'
p3233
aS'otz'
p3234
aS'kowanyama, ql, australia'
p3235
aS'kwm'
p3236
aS'koyukuk, ak'
p3237
aS'kyu'
p3238
aS'kozhikode, india'
p3239
aS'ccj'
p3240
aS'krabi, thailand'
p3241
aS'kbv'
p3242
aS'krakow, poland'
p3243
aS'krk'
p3244
aS'krivoy rog, ukraine'
p3245
aS'kwg'
p3246
aS'kuala lumpur, malaysia'
p3247
aS'kul'
p3248
aS'kuala terengganu, malaysia'
p3249
aS'tgg'
p3250
aS'kuantan, malaysia'
p3251
aS'kua'
p3252
aS'kubin island, ql, australia'
p3253
aS'kug'
p3254
aS'kuching, malaysia'
p3255
aS'kch'
p3256
aS'kudat, malaysia'
p3257
aS'kud'
p3258
aS'kufrah, libya'
p3259
aS'akf'
p3260
aS'kugaaruk, nu'
p3261
aS'ybb'
p3262
aS'kugluktuk/coppermine, nu'
p3263
aS'yco'
p3264
aS'kulusuk, greenland'
p3265
aS'kus'
p3266
aS'kumejima, japan'
p3267
aS'ueo'
p3268
aS'kundiawa, papau new guinea'
p3269
aS'cmu'
p3270
aS'kuopio, finland'
p3271
aS'kuo'
p3272
aS'kuri, papua new guinea'
p3273
aS'kuq'
p3274
aS'kushiro, japan'
p3275
aS'kuh'
p3276
aS'kutaisi, georgia'
p3277
aS'kut'
p3278
aS'kuujjuaq, qc'
p3279
aS'yvp'
p3280
aS'kuujjuarapik, qc'
p3281
aS'ygw'
p3282
aS'kuusamo, finland'
p3283
aS'kao'
p3284
aS'kuwait, kuwait'
p3285
aS'kwi'
p3286
aS'kwajalein, marshall islands'
p3287
aS'kwa'
p3288
aS'kwethluk, ak'
p3289
aS'kwt'
p3290
aS'kwigillingok, ak'
p3291
aS'kwk'
p3292
aS'kyzyl, russia'
p3293
aS'kyz'
p3294
aS'la ceiba, honduras'
p3295
aS'lce'
p3296
aS'la coruna, spain'
p3297
aS'lcg'
p3298
aS'la crosse, wi'
p3299
aS'lse'
p3300
aS'la grande, qc'
p3301
aS'ygl'
p3302
aS'la palma, panama'
p3303
aS'plp'
p3304
aS'la paz, bolivia'
p3305
aS'lpb'
p3306
aS'la paz, mexico'
p3307
aS'lap'
p3308
aS'la rioja, argentina'
p3309
aS'irj'
p3310
aS'la romana, dominican republic'
p3311
aS'lrm'
p3312
aS'la ronge, sk'
p3313
aS'yvc'
p3314
aS'la serena, chile'
p3315
aS'lsc'
p3316
aS'la tabatiere, qc'
p3317
aS'zlt'
p3318
aS'la tuque, qc'
p3319
aS'ylq'
p3320
aS'laayoune, morocco'
p3321
aS'eun'
p3322
aS'labasa, fiji'
p3323
aS'lbs'
p3324
aS'lablab, papua new guinea'
p3325
aS'lab'
p3326
aS'labuan bajo, indonesia'
p3327
aS'lbj'
p3328
aS'labuan, malaysia'
p3329
aS'lbu'
p3330
aS'lac brochet, mb'
p3331
aS'xlb'
p3332
aS'lac edouard, qc - rail service'
p3333
aS'xee'
p3334
aS'ladysmith, bc - rail service'
p3335
aS'xeh'
p3336
aS'lae island, marshall islands'
p3337
aS'lml'
p3338
aS'lae, papua new guinea'
p3339
aS'lae'
p3340
aS'lafayette, in'
p3341
aS'laf'
p3342
aS'lafayette, la'
p3343
aS'lft'
p3344
aS'lages, sc, brazil'
p3345
aS'laj'
p3346
aS'lago agrio, ecuador'
p3347
aS'lgq'
p3348
aS'lago argentina, argentina'
p3349
aS'ing'
p3350
aS'lagos, nigeria'
p3351
aS'los'
p3352
aS'lahadbatu, malaysia'
p3353
aS'ldu'
p3354
aS'lahore, pakistan'
p3355
aS'lhe'
p3356
aS'lake charles, la'
p3357
aS'lch'
p3358
aS'lake havasu city, az'
p3359
aS'hii'
p3360
aS'lake minchumina, ak'
p3361
aS'lma'
p3362
aS'lakeba, fiji'
p3363
aS'lkb'
p3364
aS'lakselv, norway'
p3365
aS'lkl'
p3366
aS'lalibela, ethiopia'
p3367
aS'lli'
p3368
aS'lamap, vanuatu'
p3369
aS'lpm'
p3370
aS'lamen bay, vanuatu'
p3371
aS'lnb'
p3372
aS'lamezia-terme, italy'
p3373
aS'suf'
p3374
aS'lampang, thailand'
p3375
aS'lpi'
p3376
aS'lampedusa, italy'
p3377
aS'lmp'
p3378
aS'lamu, kenya'
p3379
aS'lau'
p3380
aS'lanai city, hi - island of lanai'
p3381
aS'lny'
p3382
aS'lancaster, pa'
p3383
aS'lns'
p3384
aS'lands end, united kingdom'
p3385
aS'leq'
p3386
aS'langford, bc - rail service'
p3387
aS'xej'
p3388
aS'langguri, indonesia'
p3389
aS'luv'
p3390
aS'langkawi, malaysia'
p3391
aS'lgk'
p3392
aS'lannion, france'
p3393
aS'lai'
p3394
aS'lansdowne house, on'
p3395
aS'ylh'
p3396
aS'lansing, mi'
p3397
aS'lan'
p3398
aS'lanzarote, spain'
p3399
aS'ace'
p3400
aS'lanzhau, guinea'
p3401
aS'lhw'
p3402
aS'lanzhou, china'
p3403
aS'zgc'
p3404
aS'laoag, philippines'
p3405
aS'lao'
p3406
aS'lappeenranta, finland'
p3407
aS'lpp'
p3408
aS'laramie, wy'
p3409
aS'lar'
p3410
aS'larantuka, indonesia'
p3411
aS'lka'
p3412
aS'laredo, tx'
p3413
aS'lrd'
p3414
aS'larnaca, cyprus'
p3415
aS'lca'
p3416
aS'larochelle, france'
p3417
aS'lrh'
p3418
aS'las palmas, spain'
p3419
aS'lpa'
p3420
aS'las piedras, venezuela'
p3421
aS'lsp'
p3422
aS'las vegas, nv'
p3423
aS'las'
p3424
aS'latakia, syria'
p3425
aS'ltk'
p3426
aS'latrobe, pa'
p3427
aS'lbe'
p3428
aS'laucala island, fiji'
p3429
aS'luc'
p3430
aS'launceston, ts, australia'
p3431
aS'lst'
p3432
aS'laurel, ms'
p3433
aS'pib'
p3434
aS'laverton, wa, australia'
p3435
aS'lvo'
p3436
aS'lawas, malaysia'
p3437
aS'lwy'
p3438
aS'lawton, ok'
p3439
aS'law'
p3440
aS'le havre, france'
p3441
aS'leh'
p3442
aS'le mans, france'
p3443
aS'zln'
p3444
aS'le puy, france'
p3445
aS'lpy'
p3446
aS'le touquet, france'
p3447
aS'ltq'
p3448
aS'leaf rapids, mb'
p3449
aS'ylr'
p3450
aS'learmonth, wa, australia'
p3451
aS'lea'
p3452
aS'lebanon, nh'
p3453
aS'leb'
p3454
aS'leeds, united kingdom'
p3455
aS'lba'
p3456
aS'legaspi, philippines'
p3457
aS'lgp'
p3458
aS'leh, india'
p3459
aS'ixl'
p3460
aS'leinster, wa, australia'
p3461
aS'ler'
p3462
aS'leipzig, germany'
p3463
aS'lej'
p3464
aS'leknes, norway'
p3465
aS'lkn'
p3466
aS'lemnos, greece'
p3467
aS'lxs'
p3468
aS'leon, mexico'
p3469
aS'bjx'
p3470
aS'leonora, wa, australia'
p3471
aS'lno'
p3472
aS'lethbridge, ab'
p3473
aS'yql'
p3474
aS'leticia, colombia'
p3475
aS'let'
p3476
aS'levelock, ak'
p3477
aS'kll'
p3478
aS'lewisburg, wv'
p3479
aS'lwb'
p3480
aS'lewiston, id'
p3481
aS'lws'
p3482
aS'lewistown, mt'
p3483
aS'lwt'
p3484
aS'lexington, ky'
p3485
aS'lex'
p3486
aS'lhasa, china'
p3487
aS'lxa'
p3488
aS'lianyungang, china'
p3489
aS'lyg'
p3490
aS'liberal, ks'
p3491
aS'lbl'
p3492
aS'liberia, costa rica'
p3493
aS'lir'
p3494
aS'libreville, gabon'
p3495
aS'lbv'
p3496
aS'lichinga, mozambique'
p3497
aS'vxc'
p3498
aS'liege, belgium'
p3499
aS'lgg'
p3500
aS'lifa, new caledonia'
p3501
aS'lif'
p3502
aS'lightning ridge, ns, australia'
p3503
aS'lhg'
p3504
aS'lihir island, papua new guinea'
p3505
aS'lnv'
p3506
aS'lihue, hi - island of kaui'
p3507
aS'lih'
p3508
aS'lijiang city, china'
p3509
aS'ljg'
p3510
aS'likiep island, marshall islands'
p3511
aS'lik'
p3512
aS'lille, france - lesquin'
p3513
aS'lil'
p3514
aS'lille, france - rail service'
p3515
aS'xdb'
p3516
aS'lilongwe, malawi'
p3517
aS'llw'
p3518
aS'lima, peru'
p3519
aS'lim'
p3520
aS'limbang, malaysia'
p3521
aS'lmn'
p3522
aS'limoges, france'
p3523
aS'lig'
p3524
aS'lincoln, ne'
p3525
aS'lnk'
p3526
aS'lindeman island, ql, australia'
p3527
aS'ldc'
p3528
aS'lindi, tanzania'
p3529
aS'ldi'
p3530
aS'linkoping, sweden'
p3531
aS'lpi'
p3532
aS'linyi, china'
p3533
aS'lyi'
p3534
aS'linz, austria'
p3535
aS'lnz'
p3536
aS'lisbon, portugal'
p3537
aS'lis'
p3538
aS'lismore, ns, australia'
p3539
aS'lsy'
p3540
aS'little rock, ar'
p3541
aS'lit'
p3542
aS'liuzhou, china'
p3543
aS'lzh'
p3544
aS'liverpool, united kingdom'
p3545
aS'lpl'
p3546
aS'livingstone, zambia'
p3547
aS'lvi'
p3548
aS'lizard island, ql, australia'
p3549
aS'lzr'
p3550
aS'ljubliana, slovenia'
p3551
aS'lju'
p3552
aS'lloydminister, ab'
p3553
aS'yll'
p3554
aS'lockhart river, australia'
p3555
aS'irg'
p3556
aS'loen, marshall islands'
p3557
aS'lof'
p3558
aS'loja, ecuador'
p3559
aS'loh'
p3560
aS'lome, togo'
p3561
aS'lfw'
p3562
aS'london, on - municipal airport'
p3563
aS'yxu'
p3564
aS'london, on - rail service'
p3565
aS'xdq'
p3566
aS'london, united kingdom - all airports'
p3567
aS'lon'
p3568
aS'london, united kingdom - biggin hill'
p3569
aS'bqh'
p3570
aS'london, united kingdom - gatwick'
p3571
aS'lgw'
p3572
aS'london, united kingdom - heathrow'
p3573
aS'lhr'
p3574
aS'london, united kingdom - london city'
p3575
aS'lcy'
p3576
aS'london, united kingdom - luton'
p3577
aS'ltn'
p3578
aS'london, united kingdom - stansted'
p3579
aS'stn'
p3580
aS'londonderry, united kingdom'
p3581
aS'ldy'
p3582
aS'london-paddington, united kingdom - rail service'
p3583
aS'qqp'
p3584
aS'londrina, pr, brazil'
p3585
aS'ldb'
p3586
aS'long apung, indonesia'
p3587
aS'lpu'
p3588
aS'long banga, malaysia'
p3589
aS'lbp'
p3590
aS'long bawan, indonesia'
p3591
aS'lbw'
p3592
aS'long beach, ca'
p3593
aS'lgb'
p3594
aS'long island, australia'
p3595
aS'hap'
p3596
aS'long island/deadmans cay, bahamas'
p3597
aS'lgi'
p3598
aS'long lellang, malaysia'
p3599
aS'lgl'
p3600
aS'long seridan, malaysia'
p3601
aS'odn'
p3602
aS'longana, vanuatu'
p3603
aS'lod'
p3604
aS'longreach, ql, australia'
p3605
aS'lre'
p3606
aS'longview, tx'
p3607
aS'ggg'
p3608
aS'longyearbyen, svalbard & jan mayen island'
p3609
aS'lyr'
p3610
aS'lonorore, vanuatu'
p3611
aS'lne'
p3612
aS'lopez island, wa'
p3613
aS'lps'
p3614
aS'lord howe island, ns, australia'
p3615
aS'ldh'
p3616
aS'loreto, mexico'
p3617
aS'lto'
p3618
aS'lorient, france'
p3619
aS'lrt'
p3620
aS'los angeles, ca'
p3621
aS'lax'
p3622
aS'los cabos, mexico'
p3623
aS'sjd'
p3624
aS'los mochis, mexico'
p3625
aS'lmm'
p3626
aS'losuia, papua new guinea'
p3627
aS'lsa'
p3628
aS'louisville, ky'
p3629
aS'sdf'
p3630
aS'lourdes/tarbes, france'
p3631
aS'lde'
p3632
aS'loveland/fort collins, co - bus service'
p3633
aS'qwf'
p3634
aS'loveland/fort collins, co - municipal airport'
p3635
aS'fnl'
p3636
aS'lozaro cardenas, mexico'
p3637
aS'lzc'
p3638
aS'luanda, angola'
p3639
aS'lad'
p3640
aS'luanda, angola'
p3641
aS'lad'
p3642
aS'luang namtha, laos'
p3643
aS'lxg'
p3644
aS'luang prabang, laos'
p3645
aS'lpq'
p3646
aS'lubbock, tx'
p3647
aS'lbb'
p3648
aS'lucknow, india'
p3649
aS'lko'
p3650
aS'luderitz, namibia'
p3651
aS'lud'
p3652
aS'lugano, switzerland'
p3653
aS'lug'
p3654
aS'lugansk, uganda'
p3655
aS'vsg'
p3656
aS'lukla, nepal'
p3657
aS'lua'
p3658
aS'lulea, sweden'
p3659
aS'lla'
p3660
aS'lumbashi, congo'
p3661
aS'fbm'
p3662
aS'luoyang, china'
p3663
aS'lya'
p3664
aS'lusaka, zambia'
p3665
aS'lun'
p3666
aS'lutselke/snowdrift, nt'
p3667
aS'ysg'
p3668
aS'luwuk, indonesia'
p3669
aS'luw'
p3670
aS'luxembourg, luxembourg'
p3671
aS'lux'
p3672
aS'luxi, china'
p3673
aS'lum'
p3674
aS'luxor, egypt'
p3675
aS'lxr'
p3676
aS'luzhou, china'
p3677
aS'lzo'
p3678
aS'lvov, ukraine'
p3679
aS'lwo'
p3680
aS'lyoksele, sweden'
p3681
aS'lyc'
p3682
aS'lyon, france - lyon part-dieu rail service'
p3683
aS'xyd'
p3684
aS'lyon, france - satolas'
p3685
aS'lys'
p3686
aS'maastricht, netherlands'
p3687
aS'mst'
p3688
aS'mabuiag island, ql, australia'
p3689
aS'ubb'
p3690
aS'macapa, ap, brazil'
p3691
aS'mcp'
p3692
aS'macas, ecuador'
p3693
aS'xms'
p3694
aS'macau, china'
p3695
aS'mfm'
p3696
aS'maceio, al, brazil'
p3697
aS'mcz'
p3698
aS'machala, ecuador'
p3699
aS'mch'
p3700
aS'mackay, ql, australia'
p3701
aS'mky'
p3702
aS'macon, ga'
p3703
aS'mcn'
p3704
aS'madang, papua new guinea'
p3705
aS'mag'
p3706
aS'madinah, saudi arabia'
p3707
aS'med'
p3708
aS'madison, wi'
p3709
aS'msn'
p3710
aS'madras, or'
p3711
aS'mdj'
p3712
aS'madrid, spain'
p3713
aS'mad'
p3714
aS'madurai, india'
p3715
aS'ixm'
p3716
aS'mae hong son, thailand'
p3717
aS'hgn'
p3718
aS'mae sot, thailand'
p3719
aS'maq'
p3720
aS'maewo, vanuatu'
p3721
aS'mwf'
p3722
aS'mafia, tanzania'
p3723
aS'mfa'
p3724
aS'magadan, russia'
p3725
aS'gdx'
p3726
aS'magnitogorsk, russia'
p3727
aS'mqf'
p3728
aS'mahanoro, madagascar'
p3729
aS'vvb'
p3730
aS'mahe island, seychelles'
p3731
aS'sez'
p3732
aS'maintirano, madagascar'
p3733
aS'mxt'
p3734
aS'maio, cape verde'
p3735
aS'mmo'
p3736
aS'majkin, marshall islands'
p3737
aS'mje'
p3738
aS'majunga, madagascar'
p3739
aS'mjn'
p3740
aS'majuro, marshall islands'
p3741
aS'maj'
p3742
aS'makale, ethiopia'
p3743
aS'mqx'
p3744
aS'makhachkala, russia'
p3745
aS'mcx'
p3746
aS'makokou, gabon'
p3747
aS'mku'
p3748
aS'makung, taiwan'
p3749
aS'mzg'
p3750
aS'malabo, equatorial guinea'
p3751
aS'ssg'
p3752
aS'malacca, malaysia'
p3753
aS'mkz'
p3754
aS'malaga, spain'
p3755
aS'agp'
p3756
aS'malakai, sudan'
p3757
aS'mak'
p3758
aS'malargue, md, argentina'
p3759
aS'lgs'
p3760
aS'malatya, turkey'
p3761
aS'mlx'
p3762
aS'male, maldives'
p3763
aS'mle'
p3764
aS'malindi, kenya'
p3765
aS'myd'
p3766
aS'malmo, sweden'
p3767
aS'mmx'
p3768
aS'maloelap island, marshall islands'
p3769
aS'mav'
p3770
aS'malololailai, fiji'
p3771
aS'ptf'
p3772
aS'malta, malta'
p3773
aS'mla'
p3774
aS'mampikony, madagascar'
p3775
aS'wmp'
p3776
aS'mana island, fiji'
p3777
aS'mnf'
p3778
aS'manado, indonesia'
p3779
aS'mdc'
p3780
aS'managua, nicaragua'
p3781
aS'mga'
p3782
aS'manakara, madagascar'
p3783
aS'wvk'
p3784
aS'mananara, madagascar'
p3785
aS'wmr'
p3786
aS'manang, nepal'
p3787
aS'ngx'
p3788
aS'mananjary, madagascar'
p3789
aS'mnj'
p3790
aS'manaus, am, brazil'
p3791
aS'mao'
p3792
aS'manchester, nh'
p3793
aS'mht'
p3794
aS'manchester, united kingdom'
p3795
aS'man'
p3796
aS'mandalay, myanmar'
p3797
aS'mdl'
p3798
aS'mandritsara, madagascar'
p3799
aS'wma'
p3800
aS'mangaia island, cook islands'
p3801
aS'mgs'
p3802
aS'mangalore, india'
p3803
aS'ixe'
p3804
aS'mangrove cay, bahamas'
p3805
aS'may'
p3806
aS'mangu, zambia'
p3807
aS'mnr'
p3808
aS'manguna, papua new guinea'
p3809
aS'mfo'
p3810
aS'manhattan, ks'
p3811
aS'mhk'
p3812
aS'manihi, french polynesia'
p3813
aS'xmh'
p3814
aS'manihiki island, cook islands'
p3815
aS'mhx'
p3816
aS'manila, philippines'
p3817
aS'mnl'
p3818
aS'maningrioa, nt, australia'
p3819
aS'mng'
p3820
aS'manistee, mi'
p3821
aS'mbl'
p3822
aS'manizales, colombia'
p3823
aS'mzl'
p3824
aS'manja, madagascar'
p3825
aS'mja'
p3826
aS'mankato, mn'
p3827
aS'mkt'
p3828
aS'manley hot springs, ak'
p3829
aS'mly'
p3830
aS'mannheim, germany'
p3831
aS'mhg'
p3832
aS'manokotak, ak'
p3833
aS'kmo'
p3834
aS'manokwari, indonesia'
p3835
aS'mkw'
p3836
aS'manston, united kingdom'
p3837
aS'mse'
p3838
aS'manta, ecuador'
p3839
aS'mec'
p3840
aS'manus island, papua new guinea'
p3841
aS'mas'
p3842
aS'manzanillo, cuba'
p3843
aS'mzo'
p3844
aS'manzanillo, mexico'
p3845
aS'zlo'
p3846
aS'manzini, swaziland'
p3847
aS'mts'
p3848
aS'mao, chad'
p3849
aS'amo'
p3850
aS'maota savaii is, western samoa'
p3851
aS'mxs'
p3852
aS'maputo, mozambique'
p3853
aS'mpm'
p3854
aS'mar del plata, ba, argentina'
p3855
aS'mdq'
p3856
aS'mara lodges, kenya'
p3857
aS'mre'
p3858
aS'maraba, pa, brazil'
p3859
aS'mab'
p3860
aS'maracaibo, venezuela'
p3861
aS'mar'
p3862
aS'maracay, venezuela'
p3863
aS'myc'
p3864
aS'mare, new caledonia'
p3865
aS'mee'
p3866
aS'margate, south africa'
p3867
aS'mgh'
p3868
aS'maribor, slovenia'
p3869
aS'mbx'
p3870
aS'mariehamn, finland'
p3871
aS'mhq'
p3872
aS'marietta, oh/parkersburg, wv'
p3873
aS'pkb'
p3874
aS'mariitsoq, greenland'
p3875
aS'jsu'
p3876
aS'marilia, sp, brazil'
p3877
aS'mii'
p3878
aS'maringa, pr, brazil'
p3879
aS'mgf'
p3880
aS'marion, il'
p3881
aS'mwa'
p3882
aS'mariupol, ukraine'
p3883
aS'mpw'
p3884
aS'maroantsetra, madagascar'
p3885
aS'wmn'
p3886
aS'marova, cameroon'
p3887
aS'mvr'
p3888
aS'marquette, mi'
p3889
aS'mqt'
p3890
aS'marseille, france'
p3891
aS'mrs'
p3892
aS'marsh harbour, bahamas'
p3893
aS'mhh'
p3894
aS'marshall, ak'
p3895
aS'mll'
p3896
aS"martha's vineyard, ma"
p3897
aS'mvy'
p3898
aS'martinsburg, pa'
p3899
aS'aoo'
p3900
aS'marudi, malaysia'
p3901
aS'mur'
p3902
aS'maryborough, ql, australia'
p3903
aS'mbh'
p3904
aS"mary's harbour, nl"
p3905
aS'ymh'
p3906
aS'masbate, philippines'
p3907
aS'mbt'
p3908
aS'maseru, lesotho'
p3909
aS'msu'
p3910
aS'mashad, iran'
p3911
aS'mhd'
p3912
aS'mason city, ia'
p3913
aS'mcw'
p3914
aS'massena, ny'
p3915
aS'mss'
p3916
aS'matamoros, mexico'
p3917
aS'mam'
p3918
aS'mataram, indonesia'
p3919
aS'ami'
p3920
aS'matsumoto, japan'
p3921
aS'mmj'
p3922
aS'matsuyama, japan'
p3923
aS'myj'
p3924
aS'maturin, venezuela'
p3925
aS'mun'
p3926
aS'maui, hi'
p3927
aS'ogg'
p3928
aS'mauke island, cook islands'
p3929
aS'muk'
p3930
aS'maulmyine, myanmar'
p3931
aS'mnu'
p3932
aS'maumere, indonesia'
p3933
aS'mof'
p3934
aS'maun, botswana'
p3935
aS'mub'
p3936
aS'maupiti, french polynesia'
p3937
aS'mau'
p3938
aS'mauritius, mauritius'
p3939
aS'mru'
p3940
aS'maxville, on - rail service'
p3941
aS'xid'
p3942
aS'mayaguana, bahamas'
p3943
aS'myg'
p3944
aS'mayaguez, puerto rico'
p3945
aS'maz'
p3946
aS'mazatlan, mexico'
p3947
aS'mzt'
p3948
aS'mbandaka, congo'
p3949
aS'mdk'
p3950
aS'mbuji mayi, congo'
p3951
aS'mjm'
p3952
aS'mcallen, tx'
p3953
aS'mfe'
p3954
aS'mcarthur river, nt, australia'
p3955
aS'mcv'
p3956
aS'mccook, ne'
p3957
aS'mck'
p3958
aS'mcgrath, ak'
p3959
aS'mcg'
p3960
aS'medan, indonesia'
p3961
aS'mes'
p3962
aS'medellin, colombia - enrique olaya herrera'
p3963
aS'eoh'
p3964
aS'medellin, colombia - jose marie cordova'
p3965
aS'mde'
p3966
aS'medford, or'
p3967
aS'mfr'
p3968
aS'medicine hat, ab'
p3969
aS'yxh'
p3970
aS'meekatharra, wa, australia'
p3971
aS'mkr'
p3972
aS'mehamn, norway'
p3973
aS'meh'
p3974
aS'meixian, china'
p3975
aS'mxz'
p3976
aS'mejit island, marshall islands'
p3977
aS'mjb'
p3978
aS'mekane selam, ethiopia'
p3979
aS'mks'
p3980
aS'mekoryuk, ak'
p3981
aS'myu'
p3982
aS'melbourne, fl'
p3983
aS'mlb'
p3984
aS'melbourne, victoria, australia'
p3985
aS'mel'
p3986
aS'melilla, spain'
p3987
aS'mln'
p3988
aS'melville, sk - rail service'
p3989
aS'xek'
p3990
aS'memanbetsu, japan'
p3991
aS'mmb'
p3992
aS'memphis, tn'
p3993
aS'mem'
p3994
aS'mendi, ethiopia'
p3995
aS'ndm'
p3996
aS'mendi, papua new guinea'
p3997
aS'mdu'
p3998
aS'mendoza, md, argentina'
p3999
aS'mdz'
p4000
aS'menorca, spain'
p4001
aS'mah'
p4002
aS'menyamya, papua new guinea'
p4003
aS'myx'
p4004
aS'merauke, indonesia'
p4005
aS'mkq'
p4006
aS'merave, sudan'
p4007
aS'mwe'
p4008
aS'merced, ca'
p4009
aS'mce'
p4010
aS'merdey, indonesia'
p4011
aS'rde'
p4012
aS'merida, mexico'
p4013
aS'mid'
p4014
aS'merida, venezuela'
p4015
aS'mrd'
p4016
aS'meridian, ms'
p4017
aS'mei'
p4018
aS'merimbula, ns, australia'
p4019
aS'mim'
p4020
aS'mersa matruh, egypt'
p4021
aS'muh'
p4022
aS'metlakatla, ak'
p4023
aS'mtm'
p4024
aS'metz/nancy, france'
p4025
aS'etz'
p4026
aS'mexicali, mexico'
p4027
aS'mxl'
p4028
aS'mexico city, mexico'
p4029
aS'mex'
p4030
aS'meyers chuck, ak'
p4031
aS'wmk'
p4032
aS'mfume, zambia'
p4033
aS'mfu'
p4034
aS'miami, fl - international'
p4035
aS'mia'
p4036
aS'miami, fl - sea plane base'
p4037
aS'mpb'
p4038
aS'miandrivazo, madagascar'
p4039
aS'zva'
p4040
aS'middle caicos, turks and caicos'
p4041
aS'mds'
p4042
aS'midland, mi'
p4043
aS'mbs'
p4044
aS'midland/odessa, tx'
p4045
aS'maf'
p4046
aS'midway island, us minor outlying islands'
p4047
aS'mdy'
p4048
aS'mikkeli, finland'
p4049
aS'mik'
p4050
aS'mikonos, greece'
p4051
aS'jmk'
p4052
aS'milan, italy - linate'
p4053
aS'lin'
p4054
aS'milan, italy - malpensa'
p4055
aS'mxp'
p4056
aS'milan, italy - orio al serio'
p4057
aS'bgy'
p4058
aS'milan, italy - parma'
p4059
aS'pmf'
p4060
aS'mildura, vi, australia'
p4061
aS'mql'
p4062
aS'miles city, mt'
p4063
aS'mls'
p4064
aS'mili island, marshall islands'
p4065
aS'mij'
p4066
aS'milingimbi, nt, australia'
p4067
aS'mgt'
p4068
aS'milwaukee, wi'
p4069
aS'mke'
p4070
aS'minami daito, japan'
p4071
aS'mmd'
p4072
aS'minatitla, mexico'
p4073
aS'mtt'
p4074
aS'mindiptana, indonesia'
p4075
aS'mdp'
p4076
aS'mineralnye vody, russia'
p4077
aS'mrv'
p4078
aS'minneapolis, mn'
p4079
aS'msp'
p4080
aS'minot, nd'
p4081
aS'mot'
p4082
aS'minsk, belarus - minsk international 1'
p4083
aS'mhp'
p4084
aS'minsk, belarus - minsk international 2'
p4085
aS'msq'
p4086
aS'minto, ak'
p4087
aS'mnt'
p4088
aS'miramichi, nb - rail service'
p4089
aS'xey'
p4090
aS'miri, malaysia'
p4091
aS'myy'
p4092
aS'mirnyj, russia'
p4093
aS'mjz'
p4094
aS'misawa, japan'
p4095
aS'msj'
p4096
aS'misima island, papua new guinea'
p4097
aS'mis'
p4098
aS'mission, tx'
p4099
aS'mfe'
p4100
aS'missoula, mt'
p4101
aS'mso'
p4102
aS'misurata, libya'
p4103
aS'mra'
p4104
aS'mitiaro island, cook islands'
p4105
aS'moi'
p4106
aS'miyakejima, japan'
p4107
aS'mye'
p4108
aS'miyako jima, japan'
p4109
aS'mmy'
p4110
aS'mizan teferi, ethiopia'
p4111
aS'mtf'
p4112
aS'mo i rana, norway'
p4113
aS'mqn'
p4114
aS'moa, cuba'
p4115
aS'moa'
p4116
aS'moab, ut'
p4117
aS'cny'
p4118
aS'moala, fiji'
p4119
aS'mfj'
p4120
aS'moanamani, indonesia'
p4121
aS'oni'
p4122
aS'moanda, congo'
p4123
aS'mnb'
p4124
aS'moanda, gabon'
p4125
aS'mff'
p4126
aS'mobile, al'
p4127
aS'mob'
p4128
aS'modesto, ca'
p4129
aS'mod'
p4130
aS'mogadishu, somalia'
p4131
aS'mgq'
p4132
aS'mohenjodaro, denmark'
p4133
aS'mjd'
p4134
aS'mokpo, south korea'
p4135
aS'mpk'
p4136
aS'mokuti lodge, namibia'
p4137
aS'oku'
p4138
aS'molde, norway'
p4139
aS'mol'
p4140
aS'moline, il'
p4141
aS'mli'
p4142
aS'mombasa, kenya'
p4143
aS'mba'
p4144
aS'monastir, tunisia'
p4145
aS'mir'
p4146
aS'monbetsu, japan'
p4147
aS'mbe'
p4148
aS'monclova, mexico'
p4149
aS'lov'
p4150
aS'moncton, nb - airport'
p4151
aS'yqm'
p4152
aS'moncton, nb - rail service'
p4153
aS'xdp'
p4154
aS'monkey mia, wa, australia'
p4155
aS'mjk'
p4156
aS'mono, solomon islands'
p4157
aS'mny'
p4158
aS'monroe, la'
p4159
aS'mlu'
p4160
aS'monrovia, liberia'
p4161
aS'rob'
p4162
aS'mont joli, qc'
p4163
aS'yyy'
p4164
aS'monte carlo, monaco'
p4165
aS'mcm'
p4166
aS'monte dourado, pa, brazil'
p4167
aS'meu'
p4168
aS'montego bay, jamaica'
p4169
aS'mbj'
p4170
aS'monterey, ca'
p4171
aS'mry'
p4172
aS'monteria, colombia'
p4173
aS'mtr'
p4174
aS'monterrey, mexico'
p4175
aS'mty'
p4176
aS'montes claros, mg, brazil'
p4177
aS'moc'
p4178
aS'montevideo, uruguay'
p4179
aS'mvd'
p4180
aS'montgomery, al'
p4181
aS'mgm'
p4182
aS'montpellier, france'
p4183
aS'mpl'
p4184
aS'montreal, qc - all airports'
p4185
aS'ymq'
p4186
aS'montreal, qc - dorval'
p4187
aS'yul'
p4188
aS'montreal, qc - dorval rail service'
p4189
aS'xax'
p4190
aS'montreal, qc - downtown rail service'
p4191
aS'ymy'
p4192
aS'montreal, qc - mirabel'
p4193
aS'ymx'
p4194
aS'montreal, qc - st lambert rail service'
p4195
aS'xlm'
p4196
aS'montrose, co'
p4197
aS'mtj'
p4198
aS'montserrat, montserrat'
p4199
aS'mni'
p4200
aS'moorea, french polynesia'
p4201
aS'moz'
p4202
aS'moosonee, on'
p4203
aS'ymo'
p4204
aS'mopti, mali'
p4205
aS'mzi'
p4206
aS'mora, sweden'
p4207
aS'mxx'
p4208
aS'morafenobe, madagascar'
p4209
aS'tva'
p4210
aS'morambe, madagascar'
p4211
aS'mxm'
p4212
aS'moranbah, ql, australia'
p4213
aS'mov'
p4214
aS'moree, ns, australia'
p4215
aS'mrz'
p4216
aS'morelia, mexico'
p4217
aS'mlm'
p4218
aS'morgantown, wv'
p4219
aS'mgw'
p4220
aS'morioka, japan'
p4221
aS'hna'
p4222
aS'mornington, ql, australia'
p4223
aS'ong'
p4224
aS'moro, papua new guinea'
p4225
aS'mxh'
p4226
aS'morondava, madagascar'
p4227
aS'moq'
p4228
aS'moroni, comoros'
p4229
aS'hah'
p4230
aS'moruya, ns, australia'
p4231
aS'mya'
p4232
aS'moscow, russia - all locations'
p4233
aS'mow'
p4234
aS'moscow, russia - bykovo'
p4235
aS'bka'
p4236
aS'moscow, russia - domodedovo'
p4237
aS'dme'
p4238
aS'moscow, russia - sheremetyevo'
p4239
aS'svo'
p4240
aS'moscow, russia - vnukovo'
p4241
aS'vko'
p4242
aS'moses lake, wa'
p4243
aS'mwh'
p4244
aS'mosjoen, norway'
p4245
aS'mjf'
p4246
aS'mostar, bosnia and herzegovina'
p4247
aS'omo'
p4248
aS'mota lava, vanuatu'
p4249
aS'mtv'
p4250
aS'mouila, gabon'
p4251
aS'mjl'
p4252
aS'mount cook, new zealand'
p4253
aS'mon'
p4254
aS'mount gambier, sa, australia'
p4255
aS'mgb'
p4256
aS'mount hagen, papua new guinea'
p4257
aS'hgu'
p4258
aS'mount hotham, vi, australia'
p4259
aS'mhu'
p4260
aS'mount isa, australia'
p4261
aS'isa'
p4262
aS'mount keith, wa, australia'
p4263
aS'wme'
p4264
aS'mount magnet, wa, australia'
p4265
aS'mmg'
p4266
aS'mount pleasant, falkland islands'
p4267
aS'mpn'
p4268
aS'mountain home, ar'
p4269
aS'wmh'
p4270
aS'mountain village, ak'
p4271
aS'mou'
p4272
aS'mpacha, namibia'
p4273
aS'mpa'
p4274
aS'mtwara, tanzania'
p4275
aS'myw'
p4276
aS'mucuri, ba, brazil'
p4277
aS'mvs'
p4278
aS'mudanjiang, china'
p4279
aS'mdg'
p4280
aS'mudgee, australia'
p4281
aS'dge'
p4282
aS'muenster, germany'
p4283
aS'fmo'
p4284
aS'mukan, malaysia'
p4285
aS'mkm'
p4286
aS'mulhouse, france'
p4287
aS'mlh'
p4288
aS'mulia, indonesia'
p4289
aS'lii'
p4290
aS'multan, pakistan'
p4291
aS'mux'
p4292
aS'mulu, malaysia'
p4293
aS'mzv'
p4294
aS'mumbai, india'
p4295
aS'bom'
p4296
aS'munda, solomon islands'
p4297
aS'mua'
p4298
aS'munich, germany'
p4299
aS'muc'
p4300
aS'murcia, spain'
p4301
aS'mjv'
p4302
aS'murmansk, russia'
p4303
aS'mmk'
p4304
aS'murray island, ql, australia'
p4305
aS'myi'
p4306
aS'mus, turkey'
p4307
aS'msr'
p4308
aS'muscat, oman'
p4309
aS'mct'
p4310
aS'muscle shoals, al'
p4311
aS'msl'
p4312
aS'muskegon, mi'
p4313
aS'mkg'
p4314
aS'muskrat dam, on'
p4315
aS'msa'
p4316
aS'musoma, tanzania'
p4317
aS'muz'
p4318
aS'muzaffarabad, pakistan'
p4319
aS'mfg'
p4320
aS'mwanza, tanzania'
p4321
aS'mwz'
p4322
aS'myeik, myanmar'
p4323
aS'mgz'
p4324
aS'myitkyina, myanmar'
p4325
aS'myt'
p4326
aS'myrtle beach, sc'
p4327
aS'myr'
p4328
aS'mytilene, greece'
p4329
aS'mjt'
p4330
aS'mzuzu, malawi'
p4331
aS'zzu'
p4332
aS'nabire, indonesia'
p4333
aS'nbx'
p4334
aS'nacala, mozambique'
p4335
aS'mnc'
p4336
aS'nadar, morocco'
p4337
aS'ndr'
p4338
aS'nadi, fiji'
p4339
aS'nan'
p4340
aS'nadym, russia'
p4341
aS'nym'
p4342
aS'naga, philippines'
p4343
aS'wnp'
p4344
aS'nagasaki, japan'
p4345
aS'ngs'
p4346
aS'nagoya, japan - chubu centrair intl'
p4347
aS'ngo'
p4348
aS'nagoya, japan - nagoya komaki apt'
p4349
aS'ngo'
p4350
aS'nagpur, india'
p4351
aS'nag'
p4352
aS'nain, nl'
p4353
aS'ydp'
p4354
aS'nairobi, kenya - jomo kenyatta intl'
p4355
aS'nbo'
p4356
aS'nairobi, kenya - wilson'
p4357
aS'wil'
p4358
aS'nakhichevan, azerbaijan'
p4359
aS'naj'
p4360
aS'nakhon ratchosima, thailand'
p4361
aS'nak'
p4362
aS'nakhon si thammarat, thailand'
p4363
aS'nst'
p4364
aS'nakina, on'
p4365
aS'yqn'
p4366
aS'nalchik, russia'
p4367
aS'nal'
p4368
aS'namangan, uzbekistan'
p4369
aS'nma'
p4370
aS'namatana, papua new guinea'
p4371
aS'atn'
p4372
aS'namorik island, marshall islands'
p4373
aS'ndk'
p4374
aS'nampula, mozambique'
p4375
aS'apl'
p4376
aS'namsos, norway'
p4377
aS'osy'
p4378
aS'namudi, papua new guinea'
p4379
aS'ndi'
p4380
aS'nan, thailand'
p4381
aS'nnt'
p4382
aS'nanaimo, bc - cassidy airport'
p4383
aS'ycd'
p4384
aS'nanaimo, bc - harbour airport'
p4385
aS'zna'
p4386
aS'nanchong, china'
p4387
aS'nao'
p4388
aS'nanisivik, nu'
p4389
aS'ysr'
p4390
aS'nanking/nanjing, china'
p4391
aS'nkg'
p4392
aS'nanning, china'
p4393
aS'nng'
p4394
aS'nanortalik, greenland'
p4395
aS'jnn'
p4396
aS'nantes, france - nantes atlantique'
p4397
aS'nte'
p4398
aS'nantes, france - rail service'
p4399
aS'qjz'
p4400
aS'nantong, china'
p4401
aS'ntg'
p4402
aS'nantucket, ma'
p4403
aS'ack'
p4404
aS'nanyang, china'
p4405
aS'nny'
p4406
aS'nanyuki, kenya'
p4407
aS'nyk'
p4408
aS'napakiak, ak'
p4409
aS'wna'
p4410
aS'napanee, on - rail service'
p4411
aS'xif'
p4412
aS'napaskiak, ak'
p4413
aS'pka'
p4414
aS'napier-hastings, new zealand'
p4415
aS'npe'
p4416
aS'naples, fl'
p4417
aS'apf'
p4418
aS'naples, italy'
p4419
aS'nap'
p4420
aS'narathiwat, thailand'
p4421
aS'naw'
p4422
aS'narrabri, ns, australia'
p4423
aS'naa'
p4424
aS'narsaq, greenland'
p4425
aS'jns'
p4426
aS'narsarsuaq, greenland'
p4427
aS'uak'
p4428
aS'narvik, norway'
p4429
aS'nvk'
p4430
aS'naryan-mar, russia'
p4431
aS'nnm'
p4432
aS'nashville, tn'
p4433
aS'bna'
p4434
aS'nassau, bahamas - paradise island'
p4435
aS'nas'
p4436
aS'natadi, congo'
p4437
aS'mat'
p4438
aS'natal, rn, brazil'
p4439
aS'nat'
p4440
aS'natashquan, qc'
p4441
aS'yna'
p4442
aS'naukiti, ak'
p4443
aS'nki'
p4444
aS'nauru island, nauru'
p4445
aS'inu'
p4446
aS'navegantes, sc, brazil'
p4447
aS'nvt'
p4448
aS'nawabshah, pakistan'
p4449
aS'wns'
p4450
aS'nayurengoy, russia'
p4451
aS'nux'
p4452
aS'ndjamena, chad'
p4453
aS'ndj'
p4454
aS'ndola, zambia'
p4455
aS'nla'
p4456
aS'neerlerit inaat, greenland'
p4457
aS'cnp'
p4458
aS'nefteyugansk, russia'
p4459
aS'nfg'
p4460
aS'neghelli, ethiopia'
p4461
aS'egl'
p4462
aS'negril, jamaica'
p4463
aS'neg'
p4464
aS'neiva, colombia'
p4465
aS'nva'
p4466
aS'nejran, saudi arabia'
p4467
aS'eam'
p4468
aS'nelso, new zealand'
p4469
aS'nsn'
p4470
aS'nelson lagoon, ak'
p4471
aS'nlg'
p4472
aS'nelspruit, south africa'
p4473
aS'nlp'
p4474
aS'nema, mauritania'
p4475
aS'emn'
p4476
aS'nemiscau, qc'
p4477
aS'yns'
p4478
aS'neryjungri, russia'
p4479
aS'ner'
p4480
aS'neuquen, ne, argentina'
p4481
aS'nqn'
p4482
aS'nevis, st. kitts and nevis'
p4483
aS'nev'
p4484
aS'new carlisle, qc - rail service'
p4485
aS'xel'
p4486
aS'new chenega, ak'
p4487
aS'ncn'
p4488
aS'new haven, ct'
p4489
aS'hvn'
p4490
aS'new koliganek, ak'
p4491
aS'kgk'
p4492
aS'new london/groton'
p4493
aS'gon'
p4494
aS'new london/groton'
p4495
aS'gon'
p4496
aS'new orleans, la'
p4497
aS'msy'
p4498
aS'new plymouth, new zealand'
p4499
aS'npl'
p4500
aS'new richmond, qc - rail service'
p4501
aS'xem'
p4502
aS'new stuyahok, ak'
p4503
aS'knw'
p4504
aS'new york, ny - all airports'
p4505
aS'nyc'
p4506
aS'new york, ny - kennedy'
p4507
aS'jfk'
p4508
aS'new york, ny - la guardia'
p4509
aS'lga'
p4510
aS'newark, nj'
p4511
aS'ewr'
p4512
aS'newburgh/stewart field, ny'
p4513
aS'swf'
p4514
aS'newcastle, new south wales, australia'
p4515
aS'ntl'
p4516
aS'newcastle, new south wales, australia - belmont'
p4517
aS'beo'
p4518
aS'newcastle, united kingdom'
p4519
aS'ncl'
p4520
aS'newman, wa, australia'
p4521
aS'zne'
p4522
aS'newport news, va'
p4523
aS'phf'
p4524
aS'newquay, united kingdom'
p4525
aS'nqy'
p4526
aS'newtok, ak'
p4527
aS'wwt'
p4528
aS'ngaoundere, cameroon'
p4529
aS'nge'
p4530
aS'ngau island, fiji'
p4531
aS'ngi'
p4532
aS'ngukurr, nt, australia'
p4533
aS'rpm'
p4534
aS'nha trang, viet nam'
p4535
aS'nha'
p4536
aS'niagara falls, on - rail service'
p4537
aS'xlv'
p4538
aS'niamey, niger'
p4539
aS'nim'
p4540
aS'nice, france'
p4541
aS'nce'
p4542
aS'nicosia, cyprus'
p4543
aS'nic'
p4544
aS'nightmute, ak'
p4545
aS'nme'
p4546
aS'nikolai, ak'
p4547
aS'nib'
p4548
aS'nikolski, ak'
p4549
aS'iko'
p4550
aS'nimes, france'
p4551
aS'fni'
p4552
aS'ningbo, china'
p4553
aS'ngb'
p4554
aS'nioko, congo'
p4555
aS'nix'
p4556
aS"niuafo'ou, tonga"
p4557
aS'nfo'
p4558
aS'niuatoputapu, tonga'
p4559
aS'ntt'
p4560
aS'niue island, niue'
p4561
aS'iue'
p4562
aS'nizhnevartovsk, russia'
p4563
aS'njc'
p4564
aS'nizhniy novgorod, russia'
p4565
aS'goj'
p4566
aS'noatak, ak'
p4567
aS'wtk'
p4568
aS'nojabrxsk, russia'
p4569
aS'noj'
p4570
aS'nome, ak'
p4571
aS'ome'
p4572
aS'nondalton, ak'
p4573
aS'nnl'
p4574
aS'noorvik, ak'
p4575
aS'orv'
p4576
aS'noranda/rouyn, qc'
p4577
aS'yuy'
p4578
aS'norderney, germany'
p4579
aS'nrd'
p4580
aS'nordholz-speika, germany'
p4581
aS'ndz'
p4582
aS'norfolk island, norfolk island'
p4583
aS'nlk'
p4584
aS'norfolk, ne'
p4585
aS'ofk'
p4586
aS'norfolk, va'
p4587
aS'orf'
p4588
aS"noril'sk, russia"
p4589
aS'nsk'
p4590
aS'norman wells, nt'
p4591
aS'yvq'
p4592
aS'normanton, ql, australia'
p4593
aS'ntn'
p4594
aS'norrkoping, sweden'
p4595
aS'nrk'
p4596
aS'norsup, vanuatu'
p4597
aS'nus'
p4598
aS'north bay, on'
p4599
aS'yyb'
p4600
aS'north bend, or'
p4601
aS'oth'
p4602
aS'north caicos, turks and caicos islands'
p4603
aS'nca'
p4604
aS'north eleuthera, bahamas'
p4605
aS'elh'
p4606
aS'north platte, ne'
p4607
aS'lbf'
p4608
aS'north ronaldsay, united kingdom'
p4609
aS'nrl'
p4610
aS'north spirit lake, on'
p4611
aS'yno'
p4612
aS'northway, ak'
p4613
aS'ort'
p4614
aS'norway house, mb'
p4615
aS'yne'
p4616
aS'norwich, united kingdom'
p4617
aS'nwi'
p4618
aS'nosara beach, costa rica'
p4619
aS'nob'
p4620
aS'nossi-be, madagascar'
p4621
aS'nos'
p4622
aS'nottingham, united kingdom'
p4623
aS'ema'
p4624
aS'nouadhiba, mauritania'
p4625
aS'ndb'
p4626
aS'nouakchott, mauritania'
p4627
aS'nkc'
p4628
aS'noumea, new caledonia - magenta'
p4629
aS'gea'
p4630
aS'noumea, new caledonia - tontouta'
p4631
aS'nou'
p4632
aS'novgorod, russia'
p4633
aS'nvr'
p4634
aS'novokuznetsk, russia'
p4635
aS'noz'
p4636
aS'novosibirsk, russia - tolmachevo'
p4637
aS'ovb'
p4638
aS'nueva gerona, cuba'
p4639
aS'ger'
p4640
aS'nuevo laredo, mexico'
p4641
aS'nld'
p4642
aS'nuiqsut, ak'
p4643
aS'nui'
p4644
aS'nuku hiva, french polynesia'
p4645
aS'nhv'
p4646
aS"nuku'alofa, tonga"
p4647
aS'tbu'
p4648
aS'nukus, uzbekistan'
p4649
aS'ncu'
p4650
aS'nulato, ak'
p4651
aS'nul'
p4652
aS'numbulwar, nt, australia'
p4653
aS'nub'
p4654
aS'nunapitchuk, ak'
p4655
aS'nup'
p4656
aS'nunukan, indonesia'
p4657
aS'nnx'
p4658
aS'nuremberg, germany'
p4659
aS'nue'
p4660
aS'nuremberg, germany - rail service'
p4661
aS'zaq'
p4662
aS'nuuk, greenland'
p4663
aS'goh'
p4664
aS'nyala, sudan'
p4665
aS'uyl'
p4666
aS'nyaung, myanmar'
p4667
aS'nyu'
p4668
aS'nyngan, ns, australia'
p4669
aS'nyn'
p4670
aS'oakland, ca'
p4671
aS'oak'
p4672
aS'oaxaca, mexico'
p4673
aS'oax'
p4674
aS'obano, indonesia'
p4675
aS'obd'
p4676
aS'obihiro, japan'
p4677
aS'obo'
p4678
aS'ocho rios, jamaica'
p4679
aS'ocj'
p4680
aS'odense, denmark'
p4681
aS'zbq'
p4682
aS'odessa, ukraine'
p4683
aS'ods'
p4684
aS'odessa/midland, tx'
p4685
aS'maf'
p4686
aS'ogdensburg, ny'
p4687
aS'ogs'
p4688
aS'ogoki, on'
p4689
aS'yog'
p4690
aS'ohrid, macedonia'
p4691
aS'ohd'
p4692
aS'oita, japan'
p4693
aS'oit'
p4694
aS'okaba, indonedia'
p4695
aS'okq'
p4696
aS'okayama, japan'
p4697
aS'okj'
p4698
aS'okhotsk, russia'
p4699
aS'oho'
p4700
aS'okinawa, japan'
p4701
aS'oka'
p4702
aS'oklahoma city, ok'
p4703
aS'okc'
p4704
aS'okoshiri, japan'
p4705
aS'oir'
p4706
aS'oksibil, indonesia'
p4707
aS'okl'
p4708
aS'olbia, italy'
p4709
aS'olb'
p4710
aS'old crow, yt'
p4711
aS'yoc'
p4712
aS'olpoi, vanuatu'
p4713
aS'olj'
p4714
aS'olympic dam, sa, australia'
p4715
aS'olp'
p4716
aS'omaha, ne'
p4717
aS'oma'
p4718
aS'omboue, gabon'
p4719
aS'omb'
p4720
aS'omsk, russia'
p4721
aS'oms'
p4722
aS'ondangwa, namibia'
p4723
aS'ond'
p4724
aS'ontario, ca'
p4725
aS'ont'
p4726
aS'opapamiska lake, on'
p4727
aS'ybs'
p4728
aS'oradea, romania'
p4729
aS'omr'
p4730
aS'oran, algeria'
p4731
aS'orn'
p4732
aS'orange county, ca'
p4733
aS'sna'
p4734
aS'orange, new south wales, australia'
p4735
aS'oag'
p4736
aS'oranjemund, namibia'
p4737
aS'omd'
p4738
aS'orebro, sweeden - obrebro-bofors'
p4739
aS'orb'
p4740
aS'orenburg, russia'
p4741
aS'ren'
p4742
aS'orlando, fl - herndon'
p4743
aS'orl'
p4744
aS'orlando, fl - international'
p4745
aS'mco'
p4746
aS'ormara, pakistan'
p4747
aS'orw'
p4748
aS'ornskoldsvik, sweden'
p4749
aS'oer'
p4750
aS'orsk, russia'
p4751
aS'osw'
p4752
aS'orsta-volda, norway'
p4753
aS'hov'
p4754
aS'osaka, japan - all airports'
p4755
aS'osa'
p4756
aS'osaka, japan - itami'
p4757
aS'itm'
p4758
aS'osaka, japan - kansai intl'
p4759
aS'kix'
p4760
aS'oshawa, on'
p4761
aS'yoo'
p4762
aS'oshima, japan'
p4763
aS'oim'
p4764
aS'oshkosh, wi'
p4765
aS'osh'
p4766
aS'osijek, croatia'
p4767
aS'osi'
p4768
aS'oskarshamn, sweden'
p4769
aS'osk'
p4770
aS'oslo, norway'
p4771
aS'osl'
p4772
aS'ostersund, sweden'
p4773
aS'osd'
p4774
aS'ostrava, czech republic'
p4775
aS'osr'
p4776
aS'ottawa, on - international'
p4777
aS'yow'
p4778
aS'ottawa, on - rail service'
p4779
aS'xds'
p4780
aS'ottumwa, ia'
p4781
aS'otm'
p4782
aS'otu, colombia'
p4783
aS'otu'
p4784
aS'ouagadougou, burkina faso'
p4785
aS'oua'
p4786
aS'ouargla, algeria'
p4787
aS'ogx'
p4788
aS'ouarzazate, morocco'
p4789
aS'ozz'
p4790
aS'oudomxay, laos'
p4791
aS'ody'
p4792
aS'oujda, morocco'
p4793
aS'oud'
p4794
aS'oulu, finland'
p4795
aS'oul'
p4796
aS'ouvea, new caledonia'
p4797
aS'uve'
p4798
aS'ovda, israel'
p4799
aS'vda'
p4800
aS'owensboro, ky'
p4801
aS'owb'
p4802
aS'oxford house, mb'
p4803
aS'yoh'
p4804
aS'oxnard/ventura, ca'
p4805
aS'oxr'
p4806
aS'oyem, gabon'
p4807
aS'oye'
p4808
aS'paama, vanuatu'
p4809
aS'pbj'
p4810
aS'paamiut, greenland'
p4811
aS'jfr'
p4812
aS'padang, indonesia'
p4813
aS'pdg'
p4814
aS'paderborn, germany'
p4815
aS'pad'
p4816
aS'paducah, ky'
p4817
aS'pah'
p4818
aS'page, az'
p4819
aS'pga'
p4820
aS'pago pago, american samoa'
p4821
aS'ppg'
p4822
aS'pakse, laos'
p4823
aS'pkz'
p4824
aS'pakuashipi, qc'
p4825
aS'yif'
p4826
aS'pakuba, uganda'
p4827
aS'paf'
p4828
aS'palacios, honduras'
p4829
aS'pch'
p4830
aS'palang karaya, indonesia'
p4831
aS'pky'
p4832
aS'palanga, lithuania'
p4833
aS'plq'
p4834
aS'palembang, indonesia'
p4835
aS'plm'
p4836
aS'palenque, mexico'
p4837
aS'pqm'
p4838
aS'palermo, sicily, italy'
p4839
aS'pmo'
p4840
aS'palm springs, ca'
p4841
aS'psp'
p4842
aS'palma mallorca, spain and canary islands'
p4843
aS'pmi'
p4844
aS'palmar, costa rica'
p4845
aS'pmz'
p4846
aS'palmas, to, brazil'
p4847
aS'pmw'
p4848
aS'palmerston north, new zealand'
p4849
aS'pmr'
p4850
aS'palu, indonesia'
p4851
aS'plw'
p4852
aS'pamplona, spain'
p4853
aS'pna'
p4854
aS'panama city, fl'
p4855
aS'pfn'
p4856
aS'panama city, panama - paitilla'
p4857
aS'pac'
p4858
aS'panama city, panama - tocumen intl'
p4859
aS'pty'
p4860
aS'pangkalanboun, indonesia'
p4861
aS'pkn'
p4862
aS'pangkalpinang, indonesia'
p4863
aS'pgk'
p4864
aS'pangnirtung, nu'
p4865
aS'yxp'
p4866
aS'panjger, pakistan'
p4867
aS'pjg'
p4868
aS'pantelleria, italy'
p4869
aS'pnl'
p4870
aS'papa westray, united kingdom'
p4871
aS'ppw'
p4872
aS'papeete, french polynesia'
p4873
aS'ppt'
p4874
aS'paphos, cyprus'
p4875
aS'pfo'
p4876
aS'para chinar, pakistan'
p4877
aS'paj'
p4878
aS'paraburdoo, wa, australia'
p4879
aS'pbo'
p4880
aS'paradise island, bahamas'
p4881
aS'pid'
p4882
aS'paramaribo, suriname - zanderij intl'
p4883
aS'pbm'
p4884
aS'paramaribo, suriname - zorg en hoop'
p4885
aS'org'
p4886
aS'parana, er, argentina'
p4887
aS'pra'
p4888
aS'parasi, solomon islands'
p4889
aS'prs'
p4890
aS'parent, qc - rail service'
p4891
aS'xfe'
p4892
aS'paris, france - all airports'
p4893
aS'par'
p4894
aS'paris, france - beauvais-tille'
p4895
aS'bva'
p4896
aS'paris, france - charles degaulle'
p4897
aS'cdg'
p4898
aS'paris, france - orly'
p4899
aS'ory'
p4900
aS'parkersburg, wv/marietta, oh'
p4901
aS'pkb'
p4902
aS'parksville, bc - rail service'
p4903
aS'xpb'
p4904
aS'parma/milan, italy'
p4905
aS'pmf'
p4906
aS'parnaiba, pi, brazil'
p4907
aS'phb'
p4908
aS'paro, bhutan'
p4909
aS'pbh'
p4910
aS'pasco, wa'
p4911
aS'psc'
p4912
aS'pasni, pakistan'
p4913
aS'psi'
p4914
aS'paso de los libres, argentina'
p4915
aS'aol'
p4916
aS'passo fundo, rs, brazil'
p4917
aS'pfb'
p4918
aS'pasto, colombia'
p4919
aS'pso'
p4920
aS'patna, india'
p4921
aS'pat'
p4922
aS'patras, greece'
p4923
aS'gpa'
p4924
aS'pau, france'
p4925
aS'puf'
p4926
aS'paulatuk, nt'
p4927
aS'ypc'
p4928
aS'pavlodar, kazakhstan'
p4929
aS'pwq'
p4930
aS'peace river, ab'
p4931
aS'ype'
p4932
aS'peawanuck, on'
p4933
aS'ypo'
p4934
aS'pechora, russia'
p4935
aS'pex'
p4936
aS'pedro bay, ak'
p4937
aS'pdb'
p4938
aS'pekanbaru, indonesia'
p4939
aS'pku'
p4940
aS'pelican, ak'
p4941
aS'pec'
p4942
aS'pellston, mi'
p4943
aS'pln'
p4944
aS'pelotas, rs, brazil'
p4945
aS'pet'
p4946
aS'pemba, mozambique'
p4947
aS'pol'
p4948
aS'pemba, tanzania - wawi'
p4949
aS'pma'
p4950
aS'pembroke, on'
p4951
aS'yta'
p4952
aS'penang, malaysia'
p4953
aS'pen'
p4954
aS'pendleton, or'
p4955
aS'pdt'
p4956
aS'penrhyn island, cook islands'
p4957
aS'pye'
p4958
aS'pensacola, fl'
p4959
aS'pns'
p4960
aS'penticton, bc'
p4961
aS'yyf'
p4962
aS'penzance, united kingdom'
p4963
aS'pze'
p4964
aS'peoria, il'
p4965
aS'pia'
p4966
aS'perce, qc - rail service'
p4967
aS'xfg'
p4968
aS'pereira, colombia'
p4969
aS'pei'
p4970
aS'perigueux, france'
p4971
aS'pgx'
p4972
aS'perito moreno, sc, argentina'
p4973
aS'pmq'
p4974
aS'perm, russia'
p4975
aS'pee'
p4976
aS'perpignan, france'
p4977
aS'pgf'
p4978
aS'perryville, ak'
p4979
aS'kpv'
p4980
aS'perth, western australia, australia'
p4981
aS'per'
p4982
aS'perugia, italy'
p4983
aS'peg'
p4984
aS'pescara, italy'
p4985
aS'psr'
p4986
aS'peshawar, pakistan'
p4987
aS'pew'
p4988
aS'petersburg, ak'
p4989
aS'psg'
p4990
aS'petrolina, pe, brazil'
p4991
aS'pnz'
p4992
aS'petropaulousk-kamchats, russia'
p4993
aS'pkc'
p4994
aS'petrozavodsk, russia'
p4995
aS'pes'
p4996
aS'phalaborwa, south africa'
p4997
aS'phw'
p4998
aS'philadelphia, pa - international'
p4999
aS'phl'
p5000
aS'philadelphia, pa - trenton/mercer nj'
p5001
aS'ttn'
p5002
aS'phitsanulok, thailand'
p5003
aS'phs'
p5004
aS'phnom penh, cambodia'
p5005
aS'pnh'
p5006
aS'phoenix, az'
p5007
aS'phx'
p5008
aS'phrae, thailand'
p5009
aS'prh'
p5010
aS'phu quoc, viet nam - duong dang'
p5011
aS'pqc'
p5012
aS'phuket, thailand'
p5013
aS'hkt'
p5014
aS'pickle lake, on'
p5015
aS'ypl'
p5016
aS'pico island, portugal'
p5017
aS'pix'
p5018
aS'piedras negras, mexico'
p5019
aS'pds'
p5020
aS'pierre, sd'
p5021
aS'pir'
p5022
aS'pietermaritzburg, south africa'
p5023
aS'pzb'
p5024
aS'pietersburb, south africa'
p5025
aS'ptg'
p5026
aS'pikangikum, on'
p5027
aS'ypm'
p5028
aS'pilot point, ak'
p5029
aS'pip'
p5030
aS'pilot point, ak - ugashnik bay'
p5031
aS'ugb'
p5032
aS'pilot station, ak'
p5033
aS'pqs'
p5034
aS'pingtung, taiwan'
p5035
aS'pif'
p5036
aS'pisa, italy - gal galilei'
p5037
aS'psa'
p5038
aS'pittsburgh, pa'
p5039
aS'pit'
p5040
aS'pituffik, greenland'
p5041
aS'thu'
p5042
aS'piura, peru'
p5043
aS'piu'
p5044
aS'placencia, belize'
p5045
aS'plj'
p5046
aS'platinum, ak'
p5047
aS'ptu'
p5048
aS'plattsburgh, ny'
p5049
aS'plb'
p5050
aS'pleiku, viet nam'
p5051
aS'pxu'
p5052
aS'plettenburg bay, south africa'
p5053
aS'pbz'
p5054
aS'plymouth, united kingdom'
p5055
aS'plh'
p5056
aS'pocatello, id'
p5057
aS'pih'
p5058
aS'podgoriea, serbia and montenegro - golubovci'
p5059
aS'tgd'
p5060
aS'pohnpei, micronesia'
p5061
aS'pni'
p5062
aS'point baker, ak'
p5063
aS'kpb'
p5064
aS'point hope, ak'
p5065
aS'pho'
p5066
aS'point lay, ak'
p5067
aS'piz'
p5068
aS'pointe noire, congo'
p5069
aS'pnr'
p5070
aS'pointe-a-pitre, guadeloupe'
p5071
aS'ptp'
p5072
aS'pointe-aux-trembles, qc - rail service'
p5073
aS'xpx'
p5074
aS'points north landing, sk'
p5075
aS'ynl'
p5076
aS'poitiers, france - biard'
p5077
aS'pis'
p5078
aS'poitiers, france - rail service'
p5079
aS'xop'
p5080
aS'pokhara, nepal'
p5081
aS'pkr'
p5082
aS'poltava, ukraine'
p5083
aS'plv'
p5084
aS'polyarnyj, russia'
p5085
aS'pyj'
p5086
aS'ponca city, ok'
p5087
aS'pnc'
p5088
aS'ponce, puerto rico'
p5089
aS'pse'
p5090
aS'ponce, puerto rico'
p5091
aS'pse'
p5092
aS'pond inlet, nu'
p5093
aS'yio'
p5094
aS'ponta delgada, portugal'
p5095
aS'pdl'
p5096
aS'ponta pora, ms, brazil'
p5097
aS'pmg'
p5098
aS'pontianak, indonesia'
p5099
aS'pnk'
p5100
aS'poplar hill, on'
p5101
aS'yhp'
p5102
aS'popondetta, papua new guinea'
p5103
aS'pnp'
p5104
aS'popraol/tatry, slovakia'
p5105
aS'tat'
p5106
aS'porbandar, india'
p5107
aS'pbd'
p5108
aS'pori, finland'
p5109
aS'por'
p5110
aS'porlamar, venezuela'
p5111
aS'pmv'
p5112
aS'port alberni, bc'
p5113
aS'ypb'
p5114
aS'port alsworth, ak'
p5115
aS'pta'
p5116
aS'port angeles, wa'
p5117
aS'clm'
p5118
aS'port antonio, jamaica'
p5119
aS'pot'
p5120
aS'port arthur/beaumont, tx'
p5121
aS'bpt'
p5122
aS'port au prince, haiti'
p5123
aS'pap'
p5124
aS'port augusta, sa, australia'
p5125
aS'pug'
p5126
aS'port berge, madagascar'
p5127
aS'wpb'
p5128
aS'port blair, india'
p5129
aS'ixz'
p5130
aS'port clarence, ak'
p5131
aS'kpc'
p5132
aS'port elizabeth, south africa'
p5133
aS'plz'
p5134
aS'port gentil, gabon'
p5135
aS'pog'
p5136
aS'port harcourt, nigeria'
p5137
aS'phc'
p5138
aS'port hardy, bc'
p5139
aS'yzt'
p5140
aS'port headland, wa, australia'
p5141
aS'phe'
p5142
aS'port heiden, ak'
p5143
aS'pth'
p5144
aS'port hope simpson, nl'
p5145
aS'yha'
p5146
aS'port lincoln, sa, australia'
p5147
aS'plo'
p5148
aS'port macquarie, ns, australia'
p5149
aS'pqq'
p5150
aS'port meiner, qc'
p5151
aS'ypn'
p5152
aS'port moller, ak'
p5153
aS'pml'
p5154
aS'port moresby, papua new guinea'
p5155
aS'pom'
p5156
aS'port of spain, trinidad'
p5157
aS'pos'
p5158
aS'port protection, ak'
p5159
aS'ppv'
p5160
aS'port stanley, falkland islands'
p5161
aS'psy'
p5162
aS'port sudan, sudan'
p5163
aS'pzu'
p5164
aS'port vila, vanuatu'
p5165
aS'vli'
p5166
aS'portage creek, ak'
p5167
aS'pca'
p5168
aS'portland, me'
p5169
aS'pwm'
p5170
aS'portland, or'
p5171
aS'pdx'
p5172
aS'portland, vi, australia'
p5173
aS'ptj'
p5174
aS'porto alegre, rs, brazil'
p5175
aS'poa'
p5176
aS'porto santo, portugal'
p5177
aS'pxo'
p5178
aS'porto seguro, brazil'
p5179
aS'bps'
p5180
aS'porto velho, ro, brazil'
p5181
aS'pvh'
p5182
aS'porto, portugal'
p5183
aS'opo'
p5184
aS'portoviejo, ecuador'
p5185
aS'pvo'
p5186
aS'portsmouth, nh'
p5187
aS'psm'
p5188
aS'posadas, mi, argentina'
p5189
aS'pss'
p5190
aS'postville, nl'
p5191
aS'yso'
p5192
aS'poughkeepsie, ny'
p5193
aS'pou'
p5194
aS'povungnituk, qc'
p5195
aS'ypx'
p5196
aS'powell river, bc'
p5197
aS'ypw'
p5198
aS'poza rico, mexico'
p5199
aS'paz'
p5200
aS'poznan, poland'
p5201
aS'poz'
p5202
aS'prague, czech republic'
p5203
aS'prg'
p5204
aS'praia, cape verde'
p5205
aS'rai'
p5206
aS'pres. roque saenz pena, ch, argentina'
p5207
aS'prq'
p5208
aS'prescott, az'
p5209
aS'prc'
p5210
aS'prescott, on - rail service'
p5211
aS'xii'
p5212
aS'presidente prudente, sp, brazil'
p5213
aS'ppb'
p5214
aS'presque isle, me'
p5215
aS'pqi'
p5216
aS'preveza/lefkas, greece'
p5217
aS'pvk'
p5218
aS'prince albert, sk'
p5219
aS'ypa'
p5220
aS'prince george, bc'
p5221
aS'yxs'
p5222
aS'prince george, bc - rail service'
p5223
aS'xdv'
p5224
aS'prince rupert, bc - digby island airport'
p5225
aS'ypr'
p5226
aS'prince rupert, bc - rail service'
p5227
aS'xdw'
p5228
aS'princeton, wv'
p5229
aS'blf'
p5230
aS'pristina, serbia and montenegro'
p5231
aS'prn'
p5232
aS'proserpine, ql, australia'
p5233
aS'ppp'
p5234
aS'providence, ri'
p5235
aS'pvd'
p5236
aS'providenciales, turks and caicos islands'
p5237
aS'pls'
p5238
aS'provincetown, ma'
p5239
aS'pvc'
p5240
aS'prudhoe bay/deadhorse, ak'
p5241
aS'scc'
p5242
aS'pucallpa, peru'
p5243
aS'pcl'
p5244
aS'puebla, mexico'
p5245
aS'pbc'
p5246
aS'pueblo, co'
p5247
aS'pub'
p5248
aS'puerto ayacucha, venezuela'
p5249
aS'pyh'
p5250
aS'puerto berria, colombia'
p5251
aS'pbe'
p5252
aS'puerto del rosario, spain'
p5253
aS'fue'
p5254
aS'puerto deseado, sc, argentina'
p5255
aS'pud'
p5256
aS'puerto escondido, mexico'
p5257
aS'pxm'
p5258
aS'puerto jimenez, costa rica'
p5259
aS'pjm'
p5260
aS'puerto lempira, honduras'
p5261
aS'peu'
p5262
aS'puerto madryn, cb, argentina'
p5263
aS'pmy'
p5264
aS'puerto maldonado, peru'
p5265
aS'pem'
p5266
aS'puerto montt, chile'
p5267
aS'pmc'
p5268
aS'puerto ordaz, venezuela'
p5269
aS'pzo'
p5270
aS'puerto plata, dominican republic'
p5271
aS'pop'
p5272
aS'puerto princesa, philippines'
p5273
aS'pps'
p5274
aS'puerto suarez, bolivia'
p5275
aS'psz'
p5276
aS'puerto vallarta, mexico'
p5277
aS'pvr'
p5278
aS'pukatawagan, mb -'
p5279
aS'xpk'
p5280
aS'pula, croatia'
p5281
aS'puy'
p5282
aS'pullman, wa'
p5283
aS'puw'
p5284
aS'pune, india'
p5285
aS'pnq'
p5286
aS'punta arenas, chile'
p5287
aS'puq'
p5288
aS'punta cana, dominican republic'
p5289
aS'puj'
p5290
aS'punta del este, uruguay'
p5291
aS'pdp'
p5292
aS'punta gorda, belize'
p5293
aS'pnd'
p5294
aS'punta islita, costa rica'
p5295
aS'pbp'
p5296
aS'puttaparthi, india'
p5297
aS'put'
p5298
aS'putussibau, indonesia'
p5299
aS'psu'
p5300
aS'pyongyang, north korea'
p5301
aS'fnj'
p5302
aS'qaisumah, saudi arabia'
p5303
aS'aqi'
p5304
aS'qaqortoq, greenland'
p5305
aS'jju'
p5306
aS'qiemo, china'
p5307
aS'iqm'
p5308
aS'qikiqtarjuaq, nu'
p5309
aS'yvm'
p5310
aS'qingdao, china'
p5311
aS'tao'
p5312
aS'qiqihar, china'
p5313
aS'ndg'
p5314
aS'qualicum, bc'
p5315
aS'xqu'
p5316
aS'quaqtaq, qc'
p5317
aS'yqc'
p5318
aS'quebec, qc - charny rail service'
p5319
aS'yfz'
p5320
aS'quebec, qc - international airport'
p5321
aS'yqb'
p5322
aS'quebec, qc - levis rail service'
p5323
aS'xlk'
p5324
aS'quebec, qc - quebec station rail service'
p5325
aS'xlj'
p5326
aS'quebec, qc - sainte-foy rail service'
p5327
aS'xfy'
p5328
aS'queenstown, new zealand'
p5329
aS'zqn'
p5330
aS'quelimane, mozambique'
p5331
aS'uel'
p5332
aS'quepos, costa rica'
p5333
aS'xqp'
p5334
aS'queretaro, mexico'
p5335
aS'qro'
p5336
aS'quesnel, bc'
p5337
aS'yqz'
p5338
aS'quetta, pakistan'
p5339
aS'uet'
p5340
aS'qui nhon, viet nam'
p5341
aS'uih'
p5342
aS'quibdo, colombia'
p5343
aS'uib'
p5344
aS'quimper, france'
p5345
aS'uip'
p5346
aS'quincy, il'
p5347
aS'uin'
p5348
aS'quinhagak, ak'
p5349
aS'kwn'
p5350
aS'quipi, ql, australia'
p5351
aS'ulp'
p5352
aS'quito, ecuador'
p5353
aS'uio'
p5354
aS'rabaraba, papua new guinea'
p5355
aS'rbp'
p5356
aS'rabat, morocco'
p5357
aS'rba'
p5358
aS'rabaul, papua new guinea'
p5359
aS'rab'
p5360
aS'rach gia, viet nam'
p5361
aS'vkg'
p5362
aS'raduzhnyi, russia'
p5363
aS'rat'
p5364
aS'rae lakes, nt'
p5365
aS'yra'
p5366
aS'rafha, saudi arabia'
p5367
aS'rah'
p5368
aS'rafsanjan, iran'
p5369
aS'rjn'
p5370
aS'raiatea, french polynesia'
p5371
aS'rfp'
p5372
aS'rainbow lake, ab'
p5373
aS'yop'
p5374
aS'rajkot, india'
p5375
aS'raj'
p5376
aS'rajshahi, bangladesh'
p5377
aS'rjh'
p5378
aS'raleigh/durham, nc'
p5379
aS'rdu'
p5380
aS'ramato, solomon islands'
p5381
aS'rbv'
p5382
aS'ramingining, nt, australia'
p5383
aS'ram'
p5384
aS'rampart, ak'
p5385
aS'rmp'
p5386
aS'ranchi, india'
p5387
aS'ixr'
p5388
aS'rankin inlet, nu'
p5389
aS'yrt'
p5390
aS'ranong, thailand'
p5391
aS'unn'
p5392
aS'rapid city, sd'
p5393
aS'rap'
p5394
aS'rarotonga, cook islands'
p5395
aS'rar'
p5396
aS'ras al khaimah, united arab emirates'
p5397
aS'rkt'
p5398
aS'rasht, iran'
p5399
aS'ras'
p5400
aS'ratanakiri, cambodia'
p5401
aS'rbe'
p5402
aS'rawala kot, pakistan'
p5403
aS'raz'
p5404
aS'reading, pa'
p5405
aS'rdg'
p5406
aS'rebun, japan'
p5407
aS'rbj'
p5408
aS'recife, pe, brazil'
p5409
aS'rec'
p5410
aS'reconquista, sf, argentina'
p5411
aS'rcq'
p5412
aS'red devil, ak'
p5413
aS'rdv'
p5414
aS'red lake, on'
p5415
aS'yrl'
p5416
aS'red sucker lake, mb'
p5417
aS'yrs'
p5418
aS'redding, ca'
p5419
aS'rdd'
p5420
aS'redmond, or'
p5421
aS'rdm'
p5422
aS'reggio calabria, italy'
p5423
aS'reg'
p5424
aS'regina, sk'
p5425
aS'yqr'
p5426
aS'rennell, solomon islands'
p5427
aS'rnl'
p5428
aS'rennes, france'
p5429
aS'rns'
p5430
aS'reno, nv'
p5431
aS'rno'
p5432
aS'repulse bay, nu'
p5433
aS'yut'
p5434
aS'resistencia, cw, argentina'
p5435
aS'res'
p5436
aS'resolute, nu'
p5437
aS'yrb'
p5438
aS'reus, spain and canary islands'
p5439
aS'reu'
p5440
aS'reykjavik, iceland'
p5441
aS'kef'
p5442
aS'reynossa, mexico'
p5443
aS'rex'
p5444
aS'rhinelander, wi,'
p5445
aS'rhi'
p5446
aS'rhodes, gabon'
p5447
aS'rho'
p5448
aS'ribeirao preto, sp, brazil'
p5449
aS'rao'
p5450
aS'riberalta, bolivia'
p5451
aS'rib'
p5452
aS'richards bay, south africa'
p5453
aS'rcb'
p5454
aS'richmond, ql, australia'
p5455
aS'rcm'
p5456
aS'richmond, va'
p5457
aS'ric'
p5458
aS'riga, latvia'
p5459
aS'rix'
p5460
aS'rigolet, nl'
p5461
aS'yrg'
p5462
aS'rijeka, croatia'
p5463
aS'rjk'
p5464
aS'rimini, italy'
p5465
aS'rmi'
p5466
aS'rimouski, qc'
p5467
aS'yxk'
p5468
aS'rio branco, ac, brazil'
p5469
aS'rbr'
p5470
aS'rio cuarto, cd, argentina'
p5471
aS'rcu'
p5472
aS'rio de janeiro, rj, brazil'
p5473
aS'gig'
p5474
aS'rio gallegos, argentina - internacional'
p5475
aS'rgl'
p5476
aS'rio grande, rs, brazil'
p5477
aS'rig'
p5478
aS'rio grande, tf, argentina'
p5479
aS'rga'
p5480
aS'rio mayo, cb, argentina'
p5481
aS'roy'
p5482
aS'rio verde, go, brazil'
p5483
aS'rvd'
p5484
aS'riohacha, colombia'
p5485
aS'rch'
p5486
aS'rishiri, japan'
p5487
aS'ris'
p5488
aS'riverton, wy'
p5489
aS'riw'
p5490
aS'riviere-a-pierre, qc - rail service'
p5491
aS'xrp'
p5492
aS'riyadh, saudi arabia'
p5493
aS'ruh'
p5494
aS'riyan mukalla, yemen'
p5495
aS'riy'
p5496
aS'roane, france'
p5497
aS'rne'
p5498
aS'roanoke, va'
p5499
aS'roa'
p5500
aS'roatan, honduras'
p5501
aS'rtb'
p5502
aS'roberval, qc'
p5503
aS'yrj'
p5504
aS'roch gia, viet nam'
p5505
aS'vkg'
p5506
aS'roche harbor, wa'
p5507
aS'rce'
p5508
aS'rochester, mn'
p5509
aS'rst'
p5510
aS'rochester, ny'
p5511
aS'roc'
p5512
aS'rock sound, bahamas'
p5513
aS'rsd'
p5514
aS'rock springs, wy'
p5515
aS'rks'
p5516
aS'rockford, il - park&ride bus'
p5517
aS'zrf'
p5518
aS'rockford, il - van galder bus'
p5519
aS'zrk'
p5520
aS'rockhampton, ql, australia'
p5521
aS'rok'
p5522
aS'rockland, me'
p5523
aS'rkd'
p5524
aS'rodez, france'
p5525
aS'rdz'
p5526
aS'rodrigues island, mauritius'
p5527
aS'rrg'
p5528
aS'roervik, norway'
p5529
aS'rvk'
p5530
aS'rognan, norway'
p5531
aS'zxm'
p5532
aS'roma, ql, australia'
p5533
aS'rma'
p5534
aS'rome, italy - all airports'
p5535
aS'rom'
p5536
aS'rome, italy - ciampino'
p5537
aS'cia'
p5538
aS'rome, italy - leonardo da vinci/fiumicino'
p5539
aS'fco'
p5540
aS'rongelap island, marshall islands'
p5541
aS'rnp'
p5542
aS'ronneby, sweden'
p5543
aS'rnb'
p5544
aS'roros, norway'
p5545
aS'rrs'
p5546
aS'rorutu, french polynesia'
p5547
aS'rur'
p5548
aS'rosario, sf, argentina'
p5549
aS'ros'
p5550
aS'rosario, wa'
p5551
aS'rsj'
p5552
aS'rosh pina, iceland'
p5553
aS'rpn'
p5554
aS'rost, norway'
p5555
aS'ret'
p5556
aS'rostock-laage, germany'
p5557
aS'rlg'
p5558
aS'rostov, russia'
p5559
aS'rov'
p5560
aS'roswell, nm'
p5561
aS'row'
p5562
aS'rota, northern mariana islands'
p5563
aS'rop'
p5564
aS'rotorua, new zealand'
p5565
aS'rot'
p5566
aS'rotterdam, netherlands'
p5567
aS'rtm'
p5568
aS'rouen, france'
p5569
aS'uro'
p5570
aS'round lake, on'
p5571
aS'zrj'
p5572
aS'rouyn/noranda, qc'
p5573
aS'yuy'
p5574
aS'rovaniemi, finland'
p5575
aS'rvn'
p5576
aS'ruby, ak'
p5577
aS'rby'
p5578
aS'russian mission, ak'
p5579
aS'rsh'
p5580
aS'rutland, vt'
p5581
aS'rut'
p5582
aS's. cristobal del casas, mexico'
p5583
aS'szt'
p5584
aS'saarbruecken, germany'
p5585
aS'qfz'
p5586
aS'sachigo lake, on'
p5587
aS'zpb'
p5588
aS'sachs harbour, nt'
p5589
aS'ysy'
p5590
aS'sackville, nb - rail service'
p5591
aS'xkv'
p5592
aS'sacramento, ca'
p5593
aS'smf'
p5594
aS'saginaw, mi'
p5595
aS'mbs'
p5596
aS'saint cloud, mn'
p5597
aS'stc'
p5598
aS'saint croix, u.s. virgin islands'
p5599
aS'stx'
p5600
aS'saint george island, ak'
p5601
aS'stg'
p5602
aS'saint george, ut'
p5603
aS'sgu'
p5604
aS'saint hyacinthe, qc - rail service'
p5605
aS'xim'
p5606
aS'saint john, nb'
p5607
aS'ysj'
p5608
aS'saint johns, nl'
p5609
aS'yyt'
p5610
aS'saint leonard, nb'
p5611
aS'ysl'
p5612
aS'saint louis, mo'
p5613
aS'stl'
p5614
aS'saint lucia, st. lucia'
p5615
aS'slu'
p5616
aS'saint maarten, netherlands antilles'
p5617
aS'sxm'
p5618
aS"saint mary's, ak"
p5619
aS'ksm'
p5620
aS'saint michael, ak'
p5621
aS'smk'
p5622
aS'saint paul island, ak'
p5623
aS'snp'
p5624
aS'saint petersburg, russia - pulkovo'
p5625
aS'led'
p5626
aS'saint thomas, u.s. virgin islands'
p5627
aS'stt'
p5628
aS'saint tropez, france'
p5629
aS'xpz'
p5630
aS'saint tropez, france - la mole'
p5631
aS'ltt'
p5632
aS'saipan, northern mariana islands'
p5633
aS'spn'
p5634
aS'sakon nakhon, thailand'
p5635
aS'sno'
p5636
aS'salehard, russia'
p5637
aS'sly'
p5638
aS'salem, or'
p5639
aS'sle'
p5640
aS'salina, ks'
p5641
aS'sln'
p5642
aS'salisbury-ocean city, md'
p5643
aS'sby'
p5644
aS'salluit, qc'
p5645
aS'yzg'
p5646
aS'salt cay, turks and caicos islands'
p5647
aS'slx'
p5648
aS'salt lake city, ut'
p5649
aS'slc'
p5650
aS'saltillo, mexico'
p5651
aS'slw'
p5652
aS'salvadore, ba, brazil'
p5653
aS'ssa'
p5654
aS'salzburg, austria'
p5655
aS'szg'
p5656
aS'samara, russia'
p5657
aS'kuf'
p5658
aS'sambaua, madagascar'
p5659
aS'svb'
p5660
aS'samburu, kenya'
p5661
aS'uas'
p5662
aS'samos, greece'
p5663
aS'smi'
p5664
aS'san andres island, colombia'
p5665
aS'adz'
p5666
aS'san angelo, tx'
p5667
aS'sjt'
p5668
aS'san antonio oesta, rn, argentina'
p5669
aS'oes'
p5670
aS'san antonio, tx'
p5671
aS'sat'
p5672
aS'san antonio, venezuela'
p5673
aS'svz'
p5674
aS'san carlos, argentina'
p5675
aS'brc'
p5676
aS'san diego, ca'
p5677
aS'san'
p5678
aS'san francisco, ca'
p5679
aS'sfo'
p5680
aS'san jose, ca'
p5681
aS'sjc'
p5682
aS'san jose, costa rica - juan santa maria'
p5683
aS'sjo'
p5684
aS"san jose, costa rica - tobias bolanos int'l"
p5685
aS'syq'
p5686
aS'san juan, puerto rico'
p5687
aS'sju'
p5688
aS'san juan, puerto rico'
p5689
aS'sju'
p5690
aS'san juan, sj, argentina'
p5691
aS'uaq'
p5692
aS'san julian, sc, argentina'
p5693
aS'ula'
p5694
aS'san luis obispo, ca'
p5695
aS'sbp'
p5696
aS'san luis potosi, mexico'
p5697
aS'slp'
p5698
aS'san luis, sl, argentina'
p5699
aS'luq'
p5700
aS'san marino, san marino'
p5701
aS'sai'
p5702
aS'san martin de los andes, argentina'
p5703
aS'cpc'
p5704
aS'san miguel, panama'
p5705
aS'nmg'
p5706
aS'san pedro sula, honduras'
p5707
aS'sap'
p5708
aS'san rafael, argentina'
p5709
aS'afa'
p5710
aS'san salvador, bahamas'
p5711
aS'zsa'
p5712
aS'san salvador, el salvador'
p5713
aS'sal'
p5714
aS'san sebastian, spain'
p5715
aS'eas'
p5716
aS"sana'a, yemen"
p5717
aS'sah'
p5718
aS'sand point, ak'
p5719
aS'sdp'
p5720
aS'sanday, united kingdom'
p5721
aS'ndy'
p5722
aS'sandy lake, on'
p5723
aS'zsj'
p5724
aS'sanford, fl'
p5725
aS'sfb'
p5726
aS'sanikiluaq, nu'
p5727
aS'ysk'
p5728
aS'santa ana, ca'
p5729
aS'sna'
p5730
aS'santa ana, solomon islands'
p5731
aS'nnb'
p5732
aS'santa barbara, ca'
p5733
aS'sba'
p5734
aS'santa barbara, ed, venezuela'
p5735
aS'stb'
p5736
aS'santa cruz de la palma, spain and canary islands - la palma'
p5737
aS'spc'
p5738
aS'santa cruz, bolivia'
p5739
aS'vvi'
p5740
aS'santa fe, nm'
p5741
aS'saf'
p5742
aS'santa maria, brazil'
p5743
aS'ria'
p5744
aS'santa maria, ca'
p5745
aS'smx'
p5746
aS'santa maria, portugal'
p5747
aS'sma'
p5748
aS'santa marta, colombia'
p5749
aS'smr'
p5750
aS'santa rosa, ca'
p5751
aS'sts'
p5752
aS'santa rosa, lp, argentina'
p5753
aS'rsa'
p5754
aS'santarem, pa, brazil'
p5755
aS'stm'
p5756
aS'sante marie, madagascar'
p5757
aS'sms'
p5758
aS'santiago, chile'
p5759
aS'scl'
p5760
aS'santiago, dominican republic'
p5761
aS'sti'
p5762
aS'santo angelo, brazil'
p5763
aS'gel'
p5764
aS'santo antao, cape verde'
p5765
aS'nto'
p5766
aS'santo domingo, dominican republic - herrera'
p5767
aS'hex'
p5768
aS'santo domingo, dominican republic - las americas'
p5769
aS'sdq'
p5770
aS'santo domingo, venezuela'
p5771
aS'std'
p5772
aS'sanya, china'
p5773
aS'syx'
p5774
aS'sao nicolau, cape verde'
p5775
aS'sne'
p5776
aS'sao paulo, brazil - congonhas'
p5777
aS'cgh'
p5778
aS'sao paulo, brazil - guarulhos intl'
p5779
aS'gru'
p5780
aS'sao paulo, brazil - viracopos'
p5781
aS'vcp'
p5782
aS'sao tome is., sao tome and principe'
p5783
aS'tms'
p5784
aS'sao vicente, cape verde'
p5785
aS'vxe'
p5786
aS'sapporo, japan - chitose'
p5787
aS'cts'
p5788
aS'sapporo, japan - okadama'
p5789
aS'okd'
p5790
aS'sara, vanuatu'
p5791
aS'ssr'
p5792
aS'saranac lake, ny'
p5793
aS'slk'
p5794
aS'sarasota, fl'
p5795
aS'srq'
p5796
aS'saratov, russia'
p5797
aS'rtw'
p5798
aS'sarmi, indonesia'
p5799
aS'zrm'
p5800
aS'sarnia, on'
p5801
aS'yzr'
p5802
aS'sarnia, on - rail service'
p5803
aS'xdx'
p5804
aS'saskatoon, sk'
p5805
aS'yxe'
p5806
aS'satu mare, romania'
p5807
aS'suj'
p5808
aS'satwag, papua new guinea'
p5809
aS'swg'
p5810
aS'sau luiz, ma, brazil'
p5811
aS'slz'
p5812
aS'sault ste marie, mi,'
p5813
aS'ciu'
p5814
aS'sault ste-marie, on'
p5815
aS'yam'
p5816
aS'saumlaki, indonesia'
p5817
aS'sxk'
p5818
aS'savannah, ga'
p5819
aS'sav'
p5820
aS'savannakhet, laos'
p5821
aS'zvk'
p5822
aS'savonlinna, finland'
p5823
aS'svl'
p5824
aS'savoonga, ak'
p5825
aS'sva'
p5826
aS'savusavu, fiji'
p5827
aS'svu'
p5828
aS'sayaboury, laos'
p5829
aS'zby'
p5830
aS'scammon bay, ak'
p5831
aS'scm'
p5832
aS'schefferville, qc'
p5833
aS'ykl'
p5834
aS'scottsbluff, ne'
p5835
aS'bff'
p5836
aS'scranton, pa'
p5837
aS'avp'
p5838
aS'seattle, wa - lake union spb'
p5839
aS'lke'
p5840
aS'seattle, wa - seattle/tacoma international'
p5841
aS'sea'
p5842
aS'sege, solomon islands'
p5843
aS'egm'
p5844
aS'seiyun, yemen'
p5845
aS'gxf'
p5846
aS'selawik, ak'
p5847
aS'wlk'
p5848
aS'selje, norway'
p5849
aS'qfk'
p5850
aS'semarang, indonesia'
p5851
aS'srg'
p5852
aS'senggo, indonesia'
p5853
aS'zeg'
p5854
aS'senneterre, qc - rail service'
p5855
aS'xfk'
p5856
aS'seoul, south korea - all airports'
p5857
aS'sel'
p5858
aS'seoul, south korea - gimpo international'
p5859
aS'gmp'
p5860
aS'seoul, south korea - incheon international'
p5861
aS'icn'
p5862
aS'sept-iles, qc'
p5863
aS'yzv'
p5864
aS'servi, indonesia'
p5865
aS'zri'
p5866
aS'sesriem, namibia'
p5867
aS'szm'
p5868
aS'sevilla, spain and canary islands'
p5869
aS'svq'
p5870
aS'seward, ak'
p5871
aS'swd'
p5872
aS'shageluk, ak'
p5873
aS'shx'
p5874
aS'shaktoolik, ak'
p5875
aS'skk'
p5876
aS'shamattawa, mb'
p5877
aS'ztm'
p5878
aS'shanghai, china'
p5879
aS'pvg'
p5880
aS'shannon, ireland'
p5881
aS'snn'
p5882
aS'shantou, china'
p5883
aS'swa'
p5884
aS'sharm el sheikh, egypt'
p5885
aS'ssh'
p5886
aS'shawinigan, qc - rail service'
p5887
aS'xfl'
p5888
aS'shawnigan, bc - rail service'
p5889
aS'xfm'
p5890
aS'sheffield, united kingdom'
p5891
aS'szd'
p5892
aS'sheffield/florence/muscle shoals, al'
p5893
aS'msl'
p5894
aS'sheldon point, ak'
p5895
aS'sxp'
p5896
aS'shenzhen, china'
p5897
aS'szx'
p5898
aS'sheridan, wy'
p5899
aS'shr'
p5900
aS'shetland islands, united kingdom - lerwick/tingwall'
p5901
aS'lwk'
p5902
aS'shetland islands, united kingdom - sumburgh'
p5903
aS'lsi'
p5904
aS'shillavo, ethiopia'
p5905
aS'hil'
p5906
aS'shimkent, kazakhstan'
p5907
aS'cit'
p5908
aS'shiraz, iran'
p5909
aS'syz'
p5910
aS'shishmaref, ak'
p5911
aS'shh'
p5912
aS'shonai, japan'
p5913
aS'syo'
p5914
aS'shreveport, la'
p5915
aS'shv'
p5916
aS'shungnak, ak'
p5917
aS'shg'
p5918
aS'shute harbor, australia'
p5919
aS'jhq'
p5920
aS'siem reap, cambodia'
p5921
aS'rep'
p5922
aS'silchar, india'
p5923
aS'ixs'
p5924
aS'silver city, nm'
p5925
aS'svc'
p5926
aS'simao, china'
p5927
aS'sym'
p5928
aS'sinak, indonesia'
p5929
aS'nkd'
p5930
aS'singapore, singapore - changi'
p5931
aS'sin'
p5932
aS'singapore, singapore - seletar'
p5933
aS'xsp'
p5934
aS'sintang, indonesia'
p5935
aS'sqg'
p5936
aS'sioux city, ia'
p5937
aS'sux'
p5938
aS'sioux falls, sd'
p5939
aS'fsd'
p5940
aS'sioux lookout, on'
p5941
aS'yxl'
p5942
aS'sisimiut, greenland'
p5943
aS'jhs'
p5944
aS'sitka, ak'
p5945
aS'sit'
p5946
aS'sittwe, myanmar'
p5947
aS'aky'
p5948
aS'sivas, turkey'
p5949
aS'vas'
p5950
aS'skagway, ak'
p5951
aS'sgy'
p5952
aS'skiathos, greece'
p5953
aS'jsi'
p5954
aS'skopie, macedonia'
p5955
aS'fyrom'
p5956
aS'skovde, sweden'
p5957
aS'kvb'
p5958
aS'skukuza, south africa'
p5959
aS'szk'
p5960
aS'sleetmore, ak'
p5961
aS'slq'
p5962
aS'sligo, ireland'
p5963
aS'sxl'
p5964
aS'smith falls, on'
p5965
aS'ysh'
p5966
aS'smithers, bc'
p5967
aS'yyd'
p5968
aS'snare lake, nt'
p5969
aS'yfj'
p5970
aS'soalala, madagascar'
p5971
aS'dwb'
p5972
aS'soderham, sweden'
p5973
aS'soo'
p5974
aS'sofia, bulgaria'
p5975
aS'sof'
p5976
aS'sognolal, norway'
p5977
aS'sog'
p5978
aS'solo city, indonesia'
p5979
aS'soc'
p5980
aS'son-la, viet nam - na-san'
p5981
aS'sqh'
p5982
aS'sorkjosen, norway'
p5983
aS'soj'
p5984
aS'sorocaba, brazil'
p5985
aS'sod'
p5986
aS'south andros, bahamas'
p5987
aS'tzn'
p5988
aS'south bend, in'
p5989
aS'sbn'
p5990
aS'south caicos, turks and caicos islands'
p5991
aS'xsc'
p5992
aS'south hampton, united kingdom'
p5993
aS'sou'
p5994
aS'south indian lake, mb'
p5995
aS'xsi'
p5996
aS'south molle island, ql, australia'
p5997
aS'soi'
p5998
aS'south naknek, ak'
p5999
aS'wsn'
p6000
aS'southern pines, nc'
p6001
aS'sop'
p6002
aS'spartanburg/greenville, sc'
p6003
aS'gsp'
p6004
aS'split, croatia'
p6005
aS'spu'
p6006
aS'spokane, wa'
p6007
aS'geg'
p6008
aS'spring point, bahamas'
p6009
aS'axp'
p6010
aS'springfield, il'
p6011
aS'spi'
p6012
aS'springfield, mo'
p6013
aS'sgf'
p6014
aS'srinagar, india'
p6015
aS'sxr'
p6016
aS'st anthony, nl'
p6017
aS'yay'
p6018
aS'st catharines, on'
p6019
aS'ycm'
p6020
aS'st denis de la reunion, reunion'
p6021
aS'run'
p6022
aS'st kitts, st kitts and nevis'
p6023
aS'skb'
p6024
aS'st marys, on - rail service'
p6025
aS'xio'
p6026
aS'st petersburg/clearwater, fl'
p6027
aS'pie'
p6028
aS'st pierre, st pierre and miquelon'
p6029
aS'fsp'
p6030
aS'st vincent, saint vincent and the grenadines'
p6031
aS'svd'
p6032
aS'st. croix island, u.s. virgin islands'
p6033
aS'stx'
p6034
aS'st. etienne, france'
p6035
aS'ebu'
p6036
aS'st. eustatius, netherlands antilles'
p6037
aS'eux'
p6038
aS'st. lucia, st. lucia'
p6039
aS'uvf'
p6040
aS'st. lucia, st. lucia - hawnorra'
p6041
aS'uvf'
p6042
aS'st. petersburg, russia'
p6043
aS'led'
p6044
aS'st. pierre de la reunion, reunion'
p6045
aS'zse'
p6046
aS'st. thomas island, u.s. virgin islands'
p6047
aS'stt'
p6048
aS'state college/university park, pa'
p6049
aS'sce'
p6050
aS'staunton, va'
p6051
aS'shd'
p6052
aS'stavanger, norway'
p6053
aS'svg'
p6054
aS'stavropol, russia'
p6055
aS'stw'
p6056
aS'ste therese point, mb'
p6057
aS'yst'
p6058
aS'steamboat springs, co'
p6059
aS'sbs'
p6060
aS'stebbins, ak'
p6061
aS'wbb'
p6062
aS'stella maris, bahamas'
p6063
aS'sml'
p6064
aS'stephenville, nl'
p6065
aS'yjt'
p6066
aS'stevens point/wausau, wi'
p6067
aS'cwa'
p6068
aS'stevens village, ak'
p6069
aS'svs'
p6070
aS'stewart field/newburgh, ny'
p6071
aS'swf'
p6072
aS'stockholm, sweden - all airports'
p6073
aS'sto'
p6074
aS'stockholm, sweden - arlanda'
p6075
aS'arn'
p6076
aS'stockholm, sweden - bromma'
p6077
aS'bma'
p6078
aS'stockton, ca'
p6079
aS'sck'
p6080
aS'stony rapids, sk'
p6081
aS'ysf'
p6082
aS'stony river, ak'
p6083
aS'srv'
p6084
aS'stornoway, united kingdom'
p6085
aS'syy'
p6086
aS'storuman, sweden'
p6087
aS'sqo'
p6088
aS'strasbourg, france - bus service'
p6089
aS'xer'
p6090
aS'strasbourg, france - entzheim'
p6091
aS'sxb'
p6092
aS'strathroy, on - rail service'
p6093
aS'xty'
p6094
aS'stronsay, united kingdom'
p6095
aS'soy'
p6096
aS'stung treng, cambodia'
p6097
aS'tnx'
p6098
aS'stuttgart, germany - echterdingen'
p6099
aS'str'
p6100
aS'stuttgart, germany - rail service'
p6101
aS'zws'
p6102
aS'suavanao, solomon islands'
p6103
aS'vao'
p6104
aS'sucre, bolivia'
p6105
aS'sre'
p6106
aS'sudbury, on'
p6107
aS'ysb'
p6108
aS'sudbury, on - rail service'
p6109
aS'xdy'
p6110
aS'sue island, ql, australia'
p6111
aS'syu'
p6112
aS'sui, pakistan'
p6113
aS'sul'
p6114
aS'sukhotthai, thailand'
p6115
aS'ths'
p6116
aS'summer beaver, on'
p6117
aS'sur'
p6118
aS'sun city, south africa'
p6119
aS'nty'
p6120
aS'sun valley, id'
p6121
aS'sun'
p6122
aS'sunshine coast, ql, australia'
p6123
aS'mcy'
p6124
aS'surabaya, indonesia'
p6125
aS'sub'
p6126
aS'surat thani, thailand'
p6127
aS'urt'
p6128
aS'suva, fiji'
p6129
aS'suv'
p6130
aS'sveg, sweden'
p6131
aS'evg'
p6132
aS'svolvaer, norway'
p6133
aS'svj'
p6134
aS'swan river, mb'
p6135
aS'zjn'
p6136
aS'sydney, new south wales, australia'
p6137
aS'syd'
p6138
aS'sydney, ns'
p6139
aS'yqy'
p6140
aS'sylhet, bangladesh'
p6141
aS'zyl'
p6142
aS'syracuse, ny'
p6143
aS'syr'
p6144
aS'szczecin, poland'
p6145
aS'szz'
p6146
aS'taba, egypt'
p6147
aS'tcp'
p6148
aS'tabarka, tunisia'
p6149
aS'tbj'
p6150
aS'tabatinga, am, brazil'
p6151
aS'tbt'
p6152
aS'tabora, tanzania'
p6153
aS'tbo'
p6154
aS'tabriz, iran'
p6155
aS'tbz'
p6156
aS'tabubil, papua new guinea'
p6157
aS'tbg'
p6158
aS'tabuk, saudi arabia'
p6159
aS'tuu'
p6160
aS'tacheng, china'
p6161
aS'tcg'
p6162
aS'tachilek, myanmar'
p6163
aS'thl'
p6164
aS'tacloban, philippines'
p6165
aS'tac'
p6166
aS'tacna, peru'
p6167
aS'tcq'
p6168
aS'tadoule lake, mb'
p6169
aS'xtl'
p6170
aS'taichung, taiwan'
p6171
aS'txg'
p6172
aS'taif, saudi arabia'
p6173
aS'tif'
p6174
aS'tainan, taiwan'
p6175
aS'tnn'
p6176
aS'taipei, taiwan - chiang kai shek'
p6177
aS'tpe'
p6178
aS'taipei, taiwan - sung shan'
p6179
aS'tsa'
p6180
aS'taitung, taiwan'
p6181
aS'ttt'
p6182
aS'taiyuan, china'
p6183
aS'tyn'
p6184
aS'taiz, yemen'
p6185
aS'tai'
p6186
aS'takotna, ak'
p6187
aS'tct'
p6188
aS'talkeetna, ak'
p6189
aS'tka'
p6190
aS'tallahassee, fl'
p6191
aS'tlh'
p6192
aS'tallinn, estonia'
p6193
aS'tll'
p6194
aS'taloyoak, nu'
p6195
aS'yyh'
p6196
aS'tamanrasset, algeria'
p6197
aS'tmr'
p6198
aS'tamarindo, costa rica'
p6199
aS'tno'
p6200
aS'tamatave, madagascar'
p6201
aS'tmm'
p6202
aS'tambohorano, madagascar'
p6203
aS'wta'
p6204
aS'tambolaka, indonesia'
p6205
aS'tmc'
p6206
aS'tambor, costa rica'
p6207
aS'tmu'
p6208
aS'tampa, fl'
p6209
aS'tpa'
p6210
aS'tampere, finland'
p6211
aS'tmp'
p6212
aS'tampico, mexico'
p6213
aS'tam'
p6214
aS'tamworth, ns, australia'
p6215
aS'tmw'
p6216
aS'tanahmerah, indonesia'
p6217
aS'tmh'
p6218
aS'tanana, ak'
p6219
aS'tal'
p6220
aS'tangier, morocco'
p6221
aS'tng'
p6222
aS'tanjung pandan, indonesia'
p6223
aS'tjq'
p6224
aS'tanjung selor, indonesia'
p6225
aS'tjs'
p6226
aS'tanna, vanuatu'
p6227
aS'tah'
p6228
aS'taos, nm'
p6229
aS'tsm'
p6230
aS'tapachula, mexico'
p6231
aS'tap'
p6232
aS'tarakan, indonesia'
p6233
aS'trk'
p6234
aS'taramajma, japan'
p6235
aS'tra'
p6236
aS'taranto, italy'
p6237
aS'tar'
p6238
aS'tarapoto, peru'
p6239
aS'tpp'
p6240
aS'tarawa, kiribati'
p6241
aS'trw'
p6242
aS'taree, ns, australia'
p6243
aS'tro'
p6244
aS'tari, papua new guinea'
p6245
aS'tiz'
p6246
aS'tarija, bolivia'
p6247
aS'tja'
p6248
aS'tashkent, uzbekistan'
p6249
aS'tas'
p6250
aS'tasiujuaq, qc'
p6251
aS'ytq'
p6252
aS'tatitlek, ak'
p6253
aS'tek'
p6254
aS'taupo, new zealand'
p6255
aS'tuo'
p6256
aS'tauranga, new zealand'
p6257
aS'trg'
p6258
aS'taveuni, fiji'
p6259
aS'tvu'
p6260
aS'tawau, malaysia'
p6261
aS'twu'
p6262
aS'tbessa, algeria'
p6263
aS'tee'
p6264
aS'tbilisi, georgia'
p6265
aS'tbs'
p6266
aS'tchibanga, gabon'
p6267
aS'tch'
p6268
aS'te anau, new zealand'
p6269
aS'teu'
p6270
aS'teesside, united kingdom'
p6271
aS'mme'
p6272
aS'tefe, am, brazil'
p6273
aS'tff'
p6274
aS'tegucigalpa, honduras'
p6275
aS'tgu'
p6276
aS'tehran, iran - mehrabad'
p6277
aS'thr'
p6278
aS'tekadu, papua new guinea'
p6279
aS'tkb'
p6280
aS'tel aviv, israel'
p6281
aS'tlv'
p6282
aS'teller mission, ak'
p6283
aS'kts'
p6284
aS'telluride, co'
p6285
aS'tex'
p6286
aS'tembagapura, indonesia'
p6287
aS'tim'
p6288
aS'teminabuan, indonesia'
p6289
aS'txm'
p6290
aS'temuco, chile'
p6291
aS'zco'
p6292
aS'tenakee springs, ak'
p6293
aS'tke'
p6294
aS'tenerife, spain and canary islands - norte los rodeos'
p6295
aS'tfn'
p6296
aS'tenerife, spain and the canary islands - sur reina sofia'
p6297
aS'tfs'
p6298
aS'tennant creek, nt, australia'
p6299
aS'tca'
p6300
aS'tepic, mexico'
p6301
aS'tpq'
p6302
aS'terceira island, portugal'
p6303
aS'ter'
p6304
aS'teresina, pi, brazil'
p6305
aS'the'
p6306
aS'termez, uzbekistan'
p6307
aS'tmj'
p6308
aS'ternate, indonesia'
p6309
aS'tte'
p6310
aS'terrace, bc'
p6311
aS'yxt'
p6312
aS'terre haute, in'
p6313
aS'huf'
p6314
aS'tetabedi, papua new guinea'
p6315
aS'tdb'
p6316
aS'tete, mozambique'
p6317
aS'tet'
p6318
aS'tete-a-la baleine, qc'
p6319
aS'ztb'
p6320
aS'tetlin, ak'
p6321
aS'teh'
p6322
aS'tetuan, morocco'
p6323
aS'ttu'
p6324
aS'texarkana, ar'
p6325
aS'txk'
p6326
aS'tezpur, india'
p6327
aS'tez'
p6328
aS'thandwe, myanmar'
p6329
aS'snw'
p6330
aS'thangool, ql, australia'
p6331
aS'thg'
p6332
aS'thargomindah, ql, australia'
p6333
aS'xtg'
p6334
aS'the bight, bahamas'
p6335
aS'tbi'
p6336
aS'the pas, mb'
p6337
aS'yqd'
p6338
aS'the pas, mb - rail service'
p6339
aS'xdz'
p6340
aS'thessaloniki, greece'
p6341
aS'skg'
p6342
aS'thicket portage, mb'
p6343
aS'ytd'
p6344
aS'thief river falls, mn'
p6345
aS'tvf'
p6346
aS'thira, greece'
p6347
aS'jtr'
p6348
aS'thiruvananthapuram, india'
p6349
aS'trv'
p6350
aS'thompson, mb'
p6351
aS'yth'
p6352
aS'thorne bay, ak'
p6353
aS'ktb'
p6354
aS'thorshofn, iceland'
p6355
aS'tho'
p6356
aS'thunder bay, on'
p6357
aS'yqt'
p6358
aS'thursday island, ql, australia'
p6359
aS'tis'
p6360
aS'tianjn, china'
p6361
aS'tsn'
p6362
aS'tiaret, algeria'
p6363
aS'tid'
p6364
aS'tiga, new caledonia'
p6365
aS'tgj'
p6366
aS'tijuana, mexico'
p6367
aS'tij'
p6368
aS'tikehau atoll, french polynesia'
p6369
aS'tih'
p6370
aS'tiksi, russia'
p6371
aS'iks'
p6372
aS'timaru, new zealand'
p6373
aS'tiu'
p6374
aS'timimoun, algeria'
p6375
aS'tmx'
p6376
aS'timmins, on'
p6377
aS'yts'
p6378
aS'timosoara, romania'
p6379
aS'tsr'
p6380
aS'tin city, ak'
p6381
aS'tnc'
p6382
aS'tindouf, algeria'
p6383
aS'tin'
p6384
aS'tinian, northern mariana islands'
p6385
aS'tiq'
p6386
aS'tioljikja, mauritania'
p6387
aS'tiy'
p6388
aS'tioman, malaysia'
p6389
aS'tod'
p6390
aS'tippi, ethiopia'
p6391
aS'tie'
p6392
aS'tirana, albania'
p6393
aS'tia'
p6394
aS'tiree, united kingdom'
p6395
aS'tre'
p6396
aS'tirgu mures, romania'
p6397
aS'tgm'
p6398
aS'tiruchirapally, india'
p6399
aS'trz'
p6400
aS'tirupati, india'
p6401
aS'tir'
p6402
aS'tivat, serbia and montenegro'
p6403
aS'tiv'
p6404
aS'tlemcen, algeria'
p6405
aS'tlm'
p6406
aS'tobago, trinidad and tobago'
p6407
aS'tab'
p6408
aS'tobruk, libya'
p6409
aS'tob'
p6410
aS'tofino, bc,'
p6411
aS'yaz'
p6412
aS'togiak village, ak'
p6413
aS'tog'
p6414
aS'tok, ak'
p6415
aS'tkj'
p6416
aS'toksook bay, ak'
p6417
aS'ook'
p6418
aS'tokunoshima, japan'
p6419
aS'tkn'
p6420
aS'tokushima, japan'
p6421
aS'tks'
p6422
aS'tokyo, japan - all airports'
p6423
aS'tyo'
p6424
aS'tokyo, japan - haneda'
p6425
aS'hnd'
p6426
aS'tokyo, japan - narita'
p6427
aS'nrt'
p6428
aS'toledo, oh'
p6429
aS'tol'
p6430
aS'toledo, pr, brazil'
p6431
aS'tow'
p6432
aS'toluco, mexico'
p6433
aS'tlc'
p6434
aS'tom price, wa, australia'
p6435
aS'tpr'
p6436
aS'tomanggong, malaysia'
p6437
aS'tmg'
p6438
aS'tombouctou, mali'
p6439
aS'tom'
p6440
aS'tomsk, russia'
p6441
aS'tof'
p6442
aS'tongliao, china'
p6443
aS'tgo'
p6444
aS'tongoa, vanuatu'
p6445
aS'tgh'
p6446
aS'toowoomba, ql, australia'
p6447
aS'twb'
p6448
aS'topeka, ks'
p6449
aS'foe'
p6450
aS'toronto, on - downtown rail service'
p6451
aS'ybz'
p6452
aS'toronto, on - guildwood rail service'
p6453
aS'xlq'
p6454
aS'toronto, on - international'
p6455
aS'yyz'
p6456
aS'toronto, on - toronto island airport'
p6457
aS'ytz'
p6458
aS'torp airport oslo, norway - sandefjord'
p6459
aS'trf'
p6460
aS'torreon, mexico'
p6461
aS'trc'
p6462
aS'torres, vanuatu'
p6463
aS'toh'
p6464
aS'torsby, sweden'
p6465
aS'tyf'
p6466
aS'tortola, british virgin islands'
p6467
aS'tov'
p6468
aS'tortoli, italy'
p6469
aS'ttb'
p6470
aS'tortuquero, costa rica'
p6471
aS'ttq'
p6472
aS'tottori, japan'
p6473
aS'ttj'
p6474
aS'touho, new caledonia'
p6475
aS'tou'
p6476
aS'toulon, france'
p6477
aS'tln'
p6478
aS'toulouse, france'
p6479
aS'tls'
p6480
aS'tours, france'
p6481
aS'tuf'
p6482
aS'tours, france - rail service'
p6483
aS'xsh'
p6484
aS'townsville, ql, australia'
p6485
aS'tsv'
p6486
aS'toyama, japan'
p6487
aS'toy'
p6488
aS'tozeur, tunisia'
p6489
aS'toe'
p6490
aS'trabzon, turkey'
p6491
aS'tzx'
p6492
aS'trang, thailand'
p6493
aS'tst'
p6494
aS'trapani, italy'
p6495
aS'tps'
p6496
aS'traralgon, vi, australia'
p6497
aS'tgn'
p6498
aS'traverse city, mi'
p6499
aS'tvc'
p6500
aS'treasure cay, bahamas'
p6501
aS'tcb'
p6502
aS'trelew, cb, argentina'
p6503
aS'rel'
p6504
aS'trenton/mercer, nj'
p6505
aS'ttn'
p6506
aS'trieste, italy'
p6507
aS'trs'
p6508
aS'trinidad, bolivia'
p6509
aS'tdd'
p6510
aS'trinidad, trinidad and tobago'
p6511
aS'pos'
p6512
aS'tripoli, libya'
p6513
aS'tip'
p6514
aS'trollhattan, sweden'
p6515
aS'thn'
p6516
aS'trombetas, pa, brazil'
p6517
aS'tmt'
p6518
aS'tromso, norway'
p6519
aS'tos'
p6520
aS'trondheim, norway'
p6521
aS'trd'
p6522
aS'trujillo, honduras'
p6523
aS'tji'
p6524
aS'trujillo, peru'
p6525
aS'tru'
p6526
aS'truk, micronesia'
p6527
aS'tkk'
p6528
aS'truro, ns - rail service'
p6529
aS'xlz'
p6530
aS'tsaratanana, madagascar'
p6531
aS'tts'
p6532
aS'tsiroanomandidy, madagascar'
p6533
aS'wts'
p6534
aS'tsumeb, namibia'
p6535
aS'tsb'
p6536
aS'tsushima, japan'
p6537
aS'tsj'
p6538
aS'tubuai, french polynesia'
p6539
aS'tub'
p6540
aS'tucson, az'
p6541
aS'tus'
p6542
aS'tucuman, tu, argentina'
p6543
aS'tuc'
p6544
aS'tucupita, venezuela'
p6545
aS'tuv'
p6546
aS'tucurui, pa, brazil'
p6547
aS'tur'
p6548
aS'tufi, papua new guinea'
p6549
aS'tfi'
p6550
aS'tuguegarao, philippines'
p6551
aS'tug'
p6552
aS'tuktoyaktuk, nt'
p6553
aS'yub'
p6554
aS'tulcan, ecuador'
p6555
aS'tua'
p6556
aS'tulear, madagascar'
p6557
aS'tle'
p6558
aS'tulita/fort norman, nt'
p6559
aS'zfn'
p6560
aS'tulsa, ok'
p6561
aS'tul'
p6562
aS'tuluksak, ak'
p6563
aS'tlt'
p6564
aS'tum, ethiopia'
p6565
aS'tuj'
p6566
aS'tumaco, colombia'
p6567
aS'tco'
p6568
aS'tumbes, peru'
p6569
aS'tbp'
p6570
aS'tunis, tunisia'
p6571
aS'tun'
p6572
aS'tuntutuliak, ak'
p6573
aS'wtl'
p6574
aS'tununak, ak'
p6575
aS'tnk'
p6576
aS'tunxi, china'
p6577
aS'txn'
p6578
aS'tupelo, ms'
p6579
aS'tup'
p6580
aS'turaif, saudi arabia'
p6581
aS'tui'
p6582
aS'turbat, pakistan'
p6583
aS'tuk'
p6584
aS'turin, italy'
p6585
aS'trn'
p6586
aS'turku, finland'
p6587
aS'tku'
p6588
aS'tuscaloosa, al'
p6589
aS'tcl'
p6590
aS'tuxtla gutierrez, mexico'
p6591
aS'tgz'
p6592
aS'twin falls, id'
p6593
aS'twf'
p6594
aS'twin hills, ak'
p6595
aS'twa'
p6596
aS'tyler, tx'
p6597
aS'tyr'
p6598
aS'tyumen, russia'
p6599
aS'tjm'
p6600
aS'ube, japan'
p6601
aS'ubj'
p6602
aS'uberaba, mg, brazil'
p6603
aS'uba'
p6604
aS'uberlandia, mg, brazil'
p6605
aS'udi'
p6606
aS'ubon ratchathani, thailand'
p6607
aS'ubp'
p6608
aS'udaipur, india'
p6609
aS'udr'
p6610
aS'udon thani, thailand'
p6611
aS'uth'
p6612
aS'ufa, russia'
p6613
aS'ufa'
p6614
aS'ujae island, marshall islands'
p6615
aS'uje'
p6616
aS'ujung pandang, indonesia'
p6617
aS'upg'
p6618
aS'ukhta, russia'
p6619
aS'uct'
p6620
aS'ulaanbaatar, mongolia'
p6621
aS'uln'
p6622
aS'ulanhot, china'
p6623
aS'hlh'
p6624
aS'ulan-ude, russia'
p6625
aS'uud'
p6626
aS'ulei, vanuatu'
p6627
aS'ulb'
p6628
aS'uliastai, mongolia'
p6629
aS'uly'
p6630
aS'ulithi, micronesia'
p6631
aS'uli'
p6632
aS'ulsan, south korea'
p6633
aS'usn'
p6634
aS'ulundi, south africa'
p6635
aS'uld'
p6636
aS'umea, sweden'
p6637
aS'ume'
p6638
aS'umiujag, qc'
p6639
aS'yud'
p6640
aS'umtata, south africa'
p6641
aS'utt'
p6642
aS'unalakleet, ak'
p6643
aS'unk'
p6644
aS'upernavik, greenland'
p6645
aS'juv'
p6646
aS'upington, south africa'
p6647
aS'utn'
p6648
aS'uraj, russia'
p6649
aS'urj'
p6650
aS'uralsk, kazakhstan'
p6651
aS'ura'
p6652
aS'uranium city, sk'
p6653
aS'ybe'
p6654
aS'urbana/champaign, il'
p6655
aS'cmi'
p6656
aS'urgench, uzbekistan'
p6657
aS'ugc'
p6658
aS'urmieh, iran'
p6659
aS'omh'
p6660
aS'uroubi, papua new guinea'
p6661
aS'uru'
p6662
aS'uruapan, mexico'
p6663
aS'upn'
p6664
aS'uruguaiana, rs, brazil'
p6665
aS'urg'
p6666
aS'urumqi, china'
p6667
aS'urc'
p6668
aS'useless loop, wa, australia'
p6669
aS'usl'
p6670
aS'ushuaia, tf, argentina'
p6671
aS'ush'
p6672
aS'usinsk, russia'
p6673
aS'usk'
p6674
aS'ust-ilimsk, russia'
p6675
aS'uik'
p6676
aS'ust-kamenogorsk, kazakhstan'
p6677
aS'ukk'
p6678
aS'utapao, thailand'
p6679
aS'utp'
p6680
aS'utica, ny'
p6681
aS'uca'
p6682
aS'utila, honduras'
p6683
aS'uii'
p6684
aS'utirik island, marshall islands'
p6685
aS'utk'
p6686
aS'utopia creek, ak'
p6687
aS'uto'
p6688
aS'uummannaq, greeland'
p6689
aS'umd'
p6690
aS'uzhgorod, ukraine'
p6691
aS'udj'
p6692
aS'v.c. bird international, antigua & barbuda'
p6693
aS'anu'
p6694
aS'vaasa, finland'
p6695
aS'vaa'
p6696
aS'vadodara, india'
p6697
aS'bdq'
p6698
aS'vadso, norway'
p6699
aS'vds'
p6700
aS'vail, co - eagle county airport'
p6701
aS'ege'
p6702
aS'vail, co - van service'
p6703
aS'qbf'
p6704
aS'valdez, ak'
p6705
aS'vdz'
p6706
aS'valdivia, chile'
p6707
aS'zal'
p6708
aS"val-d'or, qc"
p6709
aS'yvo'
p6710
aS'valdosta, ga'
p6711
aS'vld'
p6712
aS'valencia, spain'
p6713
aS'vlc'
p6714
aS'valencia, venezuela'
p6715
aS'vln'
p6716
aS'valenciennes, france'
p6717
aS'xvs'
p6718
aS'valera, venezuela'
p6719
aS'vlv'
p6720
aS'valesdir, vanuatu'
p6721
aS'vls'
p6722
aS'valladolid, spain and canary islands'
p6723
aS'vll'
p6724
aS'valledupar, colombia'
p6725
aS'vup'
p6726
aS'valparaiso, fl'
p6727
aS'vps'
p6728
aS'valverde, spain and canary islands - hierro'
p6729
aS'vde'
p6730
aS'van, turkey'
p6731
aS'van'
p6732
aS'vancouver, bc'
p6733
aS'yvr'
p6734
aS'vancouver, bc - coal harbour'
p6735
aS'cxh'
p6736
aS'vancouver, bc - international'
p6737
aS'yvr'
p6738
aS'vancouver, bc - rail service'
p6739
aS'xea'
p6740
aS'vanimo, papua new guinea'
p6741
aS'vai'
p6742
aS'vanuabalavu, fiji'
p6743
aS'vbv'
p6744
aS'varadero, cuba'
p6745
aS'vra'
p6746
aS'varanasi, india'
p6747
aS'vns'
p6748
aS'vardoe, norway'
p6749
aS'vaw'
p6750
aS'varginha, mg, brazil'
p6751
aS'vag'
p6752
aS'varkaus, finland'
p6753
aS'vrk'
p6754
aS'varna, bulgaria'
p6755
aS'var'
p6756
aS'vasteras, sweden'
p6757
aS'vst'
p6758
aS'vatomatry, madagascar'
p6759
aS'vat'
p6760
aS"vava'u, tonga"
p6761
aS'vav'
p6762
aS'vaxjo, sweden'
p6763
aS'vxo'
p6764
aS'venetie, ak'
p6765
aS'vee'
p6766
aS'venice, italy - marco polo'
p6767
aS'vce'
p6768
aS'venice, italy - treviso'
p6769
aS'tsf'
p6770
aS'ventura/oxnard, ca'
p6771
aS'oxr'
p6772
aS'veracruz, mexico'
p6773
aS'ver'
p6774
aS'vernal, ut'
p6775
aS'vel'
p6776
aS'verona, italy'
p6777
aS'vrn'
p6778
aS'vestmannaeyjar, iceland'
p6779
aS'vey'
p6780
aS'victoria falls, zimbabwe'
p6781
aS'vfa'
p6782
aS'victoria river downs, nt, australia'
p6783
aS'vcd'
p6784
aS'victoria, bc - inner harbor'
p6785
aS'ywh'
p6786
aS'victoria, bc - international'
p6787
aS'yyj'
p6788
aS'victoria, tx'
p6789
aS'vct'
p6790
aS'viedma, rn, argentina'
p6791
aS'vdm'
p6792
aS'vienna, austria'
p6793
aS'vie'
p6794
aS'vientiane, laos - wattay'
p6795
aS'vte'
p6796
aS'vieques, puerto rico'
p6797
aS'vqs'
p6798
aS'vigo, spain'
p6799
aS'vgo'
p6800
aS'vilanculos, mozambique'
p6801
aS'vnx'
p6802
aS'vilhelmina, sweden'
p6803
aS'vhm'
p6804
aS'vilhena, brazil'
p6805
aS'bvh'
p6806
aS'villa gesell, ba, argentina'
p6807
aS'vlg'
p6808
aS'villa mercedes, sl, argentina'
p6809
aS'vme'
p6810
aS'villahermosa, mexico'
p6811
aS'vsa'
p6812
aS'vilnius, lithuania'
p6813
aS'vno'
p6814
aS'vinh city, viet nam'
p6815
aS'vii'
p6816
aS'virgin gorda, british virgin islands'
p6817
aS'vij'
p6818
aS'visalia, ca'
p6819
aS'vis'
p6820
aS'visby, sweden'
p6821
aS'vby'
p6822
aS'vishakhapatnam, india'
p6823
aS'vtz'
p6824
aS'vitebsk, belarus'
p6825
aS'vtb'
p6826
aS'vitoria da conquista, ba, brazil'
p6827
aS'vdc'
p6828
aS'vitoria, spain and canary islands'
p6829
aS'vit'
p6830
aS'vivigani, papua new guinea'
p6831
aS'viv'
p6832
aS'vladikavkaz, russia'
p6833
aS'ogz'
p6834
aS'vladivostok, russia'
p6835
aS'vvo'
p6836
aS'vohemar, madagascar'
p6837
aS'voh'
p6838
aS'volgodonsk, russia'
p6839
aS'vlk'
p6840
aS'volgograd, russia'
p6841
aS'vog'
p6842
aS'vopnafjordur, iceland'
p6843
aS'vpn'
p6844
aS'vorkuta, russia'
p6845
aS'vkt'
p6846
aS'voronezh, russia'
p6847
aS'voz'
p6848
aS'wabush, nl'
p6849
aS'ywk'
p6850
aS'waco, tx'
p6851
aS'act'
p6852
aS'wadi ad dawasir, saudi arabia'
p6853
aS'wae'
p6854
aS'wadi halfa, sudan'
p6855
aS'whf'
p6856
aS'wagethe, indonesia'
p6857
aS'wet'
p6858
aS'wagga wagga, ns, australia'
p6859
aS'wga'
p6860
aS'wahai, indonesia'
p6861
aS'wba'
p6862
aS'waingapo, indonesia'
p6863
aS'wgp'
p6864
aS'wainwright, ak'
p6865
aS'ain'
p6866
aS'wakkanai, japan'
p6867
aS'wkj'
p6868
aS'walaha, vanuatu'
p6869
aS'wlh'
p6870
aS'wales, ak'
p6871
aS'waa'
p6872
aS'walgett, ns, australia'
p6873
aS'wge'
p6874
aS'walla walla, wa'
p6875
aS'alw'
p6876
aS'wallis island, wallis and futuna islands'
p6877
aS'wls'
p6878
aS'walvis bay, namibia'
p6879
aS'wvb'
p6880
aS'wamena, indonesia'
p6881
aS'wmx'
p6882
aS'wanaka, new zealand'
p6883
aS'wka'
p6884
aS'wanganui, new zealand'
p6885
aS'wag'
p6886
aS'wangerooge, germany'
p6887
aS'age'
p6888
aS'wanigela, papua new guinea'
p6889
aS'agl'
p6890
aS'wanxian, china'
p6891
aS'wxn'
p6892
aS'warsaw, poland'
p6893
aS'waw'
p6894
aS'washington dc - all airports'
p6895
aS'was'
p6896
aS'washington dc - dulles'
p6897
aS'iad'
p6898
aS'washington dc - national'
p6899
aS'dca'
p6900
aS'wasior, indonesia'
p6901
aS'wsr'
p6902
aS'waskaganish, qc'
p6903
aS'ykq'
p6904
aS'wasu, papua new guinea'
p6905
aS'wsu'
p6906
aS'waterfall, ak'
p6907
aS'kwf'
p6908
aS'waterford, ireland'
p6909
aS'wat'
p6910
aS'waterloo, ia'
p6911
aS'alo'
p6912
aS'watertown, ny'
p6913
aS'art'
p6914
aS'watertown, sd'
p6915
aS'aty'
p6916
aS'watford, on - rail service'
p6917
aS'xwa'
p6918
aS'wau, papua new guinea'
p6919
aS'wug'
p6920
aS'wau, sudan'
p6921
aS'wuu'
p6922
aS'wausau/stevens point, wi'
p6923
aS'cwa'
p6924
aS'webequie, on'
p6925
aS'ywp'
p6926
aS'wedau, papua new guinea'
p6927
aS'wed'
p6928
aS'wedjh, saudi arabia'
p6929
aS'ejh'
p6930
aS'weihai, china'
p6931
aS'weh'
p6932
aS'weipa, ql, australia'
p6933
aS'wei'
p6934
aS'wellington, new zealand'
p6935
aS'wlg'
p6936
aS'wemindji, qc'
p6937
aS'ync'
p6938
aS'wenatchee, wa'
p6939
aS'eat'
p6940
aS'wenzhou, china'
p6941
aS'wnz'
p6942
aS'west palm beach, fl'
p6943
aS'pbi'
p6944
aS'west yellowstone, mt'
p6945
aS'wys'
p6946
aS'westchester county, ny'
p6947
aS'hpn'
p6948
aS'westerland, germany'
p6949
aS'gwt'
p6950
aS'westerly, ri'
p6951
aS'wst'
p6952
aS'westport, new zealand'
p6953
aS'wsz'
p6954
aS'westray, united kingdom'
p6955
aS'wry'
p6956
aS'westsound, wa'
p6957
aS'wsx'
p6958
aS'wewak, papua new guinea'
p6959
aS'wwk'
p6960
aS'weymont, qc - rail service'
p6961
aS'xfq'
p6962
aS'wha ti/lac la martre, nt'
p6963
aS'yle'
p6964
aS'whakatane, new zealand'
p6965
aS'whk'
p6966
aS'whale cove, nu'
p6967
aS'yxn'
p6968
aS'whale pass, ak'
p6969
aS'wwp'
p6970
aS'whangarei, new zealand'
p6971
aS'wre'
p6972
aS'white mountain, ak'
p6973
aS'wmo'
p6974
aS'white river, on'
p6975
aS'ywr'
p6976
aS'white river, vt'
p6977
aS'leb'
p6978
aS'whitehorse, yt'
p6979
aS'yxy'
p6980
aS'whyalla, sa, australia'
p6981
aS'wya'
p6982
aS'wichita falls, tx'
p6983
aS'sps'
p6984
aS'wichita, ks'
p6985
aS'ict'
p6986
aS'wick, united kingdom'
p6987
aS'wic'
p6988
aS'wilhelmshaven, germany'
p6989
aS'wvn'
p6990
aS'wilkes barre, pa'
p6991
aS'avp'
p6992
aS'williams harbour, nl'
p6993
aS'ywm'
p6994
aS'williams lake, bc'
p6995
aS'ywl'
p6996
aS'williamsburg, va'
p6997
aS'phf'
p6998
aS'williamsport, pa'
p6999
aS'ipt'
p7000
aS'williston, nd'
p7001
aS'isn'
p7002
aS'wilmington, nc'
p7003
aS'ilm'
p7004
aS'wiluna, wa, australia'
p7005
aS'wun'
p7006
aS'windarra, ql, australia'
p7007
aS'wnr'
p7008
aS'windsor locks, ct'
p7009
aS'bdl'
p7010
aS'windsor, on'
p7011
aS'yqg'
p7012
aS'windsor, on - rail service'
p7013
aS'xec'
p7014
aS'winnipeg, mb - international'
p7015
aS'ywg'
p7016
aS'winnipeg, mb - rail service'
p7017
aS'xef'
p7018
aS'winton, ql, australia'
p7019
aS'win'
p7020
aS'woja, marshall islands'
p7021
aS'wja'
p7022
aS'wollaston lake, sk'
p7023
aS'zwl'
p7024
aS'wonan, taiwan'
p7025
aS'wot'
p7026
aS'wonju, south korea'
p7027
aS'wju'
p7028
aS'woodstock, on - rail service'
p7029
aS'xip'
p7030
aS'worcester, ma'
p7031
aS'orh'
p7032
aS'worland, wy'
p7033
aS'wrl'
p7034
aS'wotho island, marshall islands'
p7035
aS'wto'
p7036
aS'wotje island, marshall islands'
p7037
aS'wte'
p7038
aS'wrangell, ak'
p7039
aS'wrg'
p7040
aS'wroclaw, poland'
p7041
aS'wro'
p7042
aS'wudinna, sa, australia'
p7043
aS'wud'
p7044
aS'wuhan, china'
p7045
aS'wuh'
p7046
aS'wunnummin lake, on'
p7047
aS'wnn'
p7048
aS'wuyishan, china'
p7049
aS'wus'
p7050
aS'wyndham, wa, australia'
p7051
aS'wyn'
p7052
aS'wyoming, on - rail service'
p7053
aS'xwy'
p7054
aS'xi an, china - xianyang'
p7055
aS'xiy'
p7056
aS'xiamen, china'
p7057
aS'xmn'
p7058
aS'xiangfan, china'
p7059
aS'xfn'
p7060
aS'xichang, china'
p7061
aS'xic'
p7062
aS'xieng khouang, laos'
p7063
aS'xkh'
p7064
aS'xilinhot, china'
p7065
aS'xil'
p7066
aS'xining, china'
p7067
aS'xnn'
p7068
aS'xuzhou, china'
p7069
aS'xuz'
p7070
aS'yakima, wa'
p7071
aS'ykm'
p7072
aS'yakutat, ak'
p7073
aS'yak'
p7074
aS'yakutsk, russia'
p7075
aS'yks'
p7076
aS'yalumet, papua new guinea'
p7077
aS'kyx'
p7078
aS'yam island, ql, australia'
p7079
aS'xmy'
p7080
aS'yamagata, japan'
p7081
aS'gaj'
p7082
aS"yan'an, china"
p7083
aS'eny'
p7084
aS'yanbu, saudi arabia'
p7085
aS'ynb'
p7086
aS'yancheng, china'
p7087
aS'ynz'
p7088
aS'yandina, solomon islands'
p7089
aS'xya'
p7090
aS'yangon, myanmar'
p7091
aS'rgn'
p7092
aS'yanji, china'
p7093
aS'ynj'
p7094
aS'yantai, china'
p7095
aS'ynt'
p7096
aS'yaounde, cameroon'
p7097
aS'yao'
p7098
aS'yap, micronesia'
p7099
aS'yap'
p7100
aS'yarmouth, ns'
p7101
aS'yqi'
p7102
aS'yaroslavl, russia'
p7103
aS'iar'
p7104
aS'yazd, iran'
p7105
aS'azd'
p7106
aS'yelimane, mali'
p7107
aS'eyl'
p7108
aS'yellowknife, nt'
p7109
aS'yzf'
p7110
aS'yellowstone/cody, wy'
p7111
aS'cod'
p7112
aS'yeosu, south korea'
p7113
aS'rsu'
p7114
aS'yerevan, armenia'
p7115
aS'evn'
p7116
aS'yibin, china'
p7117
aS'ybp'
p7118
aS'yichang, china'
p7119
aS'yih'
p7120
aS'yinchuan, china'
p7121
aS'inc'
p7122
aS'yining, china'
p7123
aS'yin'
p7124
aS'yiwu, china'
p7125
aS'yiw'
p7126
aS'yogyakarta, indonesia'
p7127
aS'jog'
p7128
aS'yonago, japan'
p7129
aS'ygj'
p7130
aS'yonaguni jima, japan'
p7131
aS'ogn'
p7132
aS'york landing, mb'
p7133
aS'zac'
p7134
aS'yorke island, ql, australia'
p7135
aS'okr'
p7136
aS'yoronjima, japan'
p7137
aS'rnj'
p7138
aS'youngstown, oh'
p7139
aS'yng'
p7140
aS'yulin, china'
p7141
aS'uyn'
p7142
aS'yuma, az'
p7143
aS'yum'
p7144
aS'yuzhno-sakhalinsk, russia'
p7145
aS'uus'
p7146
aS'zadar, croatia'
p7147
aS'zad'
p7148
aS'zagreb, croatia'
p7149
aS'zag'
p7150
aS'zahedan, iran'
p7151
aS'zah'
p7152
aS'zakinthos island, greece'
p7153
aS'zth'
p7154
aS'zamboanga, philippines'
p7155
aS'zam'
p7156
aS'zanzibar, tanzania - kisauni'
p7157
aS'znz'
p7158
aS'zaporozhye, ukraine'
p7159
aS'ozh'
p7160
aS'zaragoza, spain and canary islands'
p7161
aS'zaz'
p7162
aS'zhanjiang, china'
p7163
aS'zha'
p7164
aS'zhaotong, china'
p7165
aS'zat'
p7166
aS'zhengzha, china'
p7167
aS'cgo'
p7168
aS'zhob, pakistan'
p7169
aS'pzh'
p7170
aS'zhoushan, china'
p7171
aS'hsn'
p7172
aS'zhuhai, china'
p7173
aS'zuh'
p7174
aS'zielana, poland'
p7175
aS'ieg'
p7176
aS'zihuatanejo/ixtapa, mexico'
p7177
aS'zih'
p7178
aS'zouerate, mauritania'
p7179
aS'ouz'
p7180
aS'zugapa, indonesia'
p7181
aS'ugu'
p7182
aS'zurich, switzerland'
p7183
aS'zrh'
p7184
a.